
AVRASM ver. 2.1.17  D:\A_With업무\1. With_소프트웨어\1. 구동파일\2. SEC\2. 전문기술그룹\압착지그\1. 구동파일\With설계용(5Inch)\미배포파일_5Inch(150424)_이원욱D요청으로 버젼업_V06\List\WindowPressure.asm Mon Jun 15 12:02:00 2015

                 
                 
                 ;CodeVisionAVR C Compiler V2.03.4 Standard
                 ;(C) Copyright 1998-2008 Pavel Haiduc, HP InfoTech s.r.l.
                 ;http://www.hpinfotech.com
                 
                 ;Chip type              : ATmega2560
                 ;Program type           : Application
                 ;Clock frequency        : 7.372800 MHz
                 ;Memory model           : Small
                 ;Optimize for           : Size
                 ;(s)printf features     : float, width, precision
                 ;(s)scanf features      : long, width
                 ;External RAM size      : 0
                 ;Data Stack size        : 2048 byte(s)
                 ;Heap size              : 0 byte(s)
                 ;Promote char to int    : No
                 ;char is unsigned       : No
                 ;global const stored in FLASH  : Yes
                 ;8 bit enums            : No
                 ;Enhanced core instructions    : On
                 ;Smart register allocation : On
                 ;Automatic register allocation : On
                 
                 	#pragma AVRPART ADMIN PART_NAME ATmega2560
                 	#pragma AVRPART MEMORY PROG_FLASH 262144
                 	#pragma AVRPART MEMORY EEPROM 4096
                 	#pragma AVRPART MEMORY INT_SRAM SIZE 8192
                 	#pragma AVRPART MEMORY INT_SRAM START_ADDR 0x200
                 
                 	.LISTMAC
                 	.EQU EERE=0x0
                 	.EQU EEWE=0x1
                 	.EQU EEMWE=0x2
                 	.EQU UDRE=0x5
                 	.EQU RXC=0x7
                 	.EQU EECR=0x1F
                 	.EQU EEDR=0x20
                 	.EQU EEARL=0x21
                 	.EQU EEARH=0x22
                 	.EQU SPSR=0x2D
                 	.EQU SPDR=0x2E
                 	.EQU SMCR=0x33
                 	.EQU MCUSR=0x34
                 	.EQU MCUCR=0x35
                 	.EQU WDTCSR=0x60
                 	.EQU UCSR0A=0xC0
                 	.EQU UDR0=0xC6
                 	.EQU RAMPZ=0x3B
                 	.EQU EIND=0x3C
                 	.EQU SPL=0x3D
                 	.EQU SPH=0x3E
                 	.EQU SREG=0x3F
                 	.EQU XMCRA=0x74
                 	.EQU XMCRB=0x75
                 	.EQU GPIOR0=0x1E
                 
                 	.DEF R0X0=R0
                 	.DEF R0X1=R1
                 	.DEF R0X2=R2
                 	.DEF R0X3=R3
                 	.DEF R0X4=R4
                 	.DEF R0X5=R5
                 	.DEF R0X6=R6
                 	.DEF R0X7=R7
                 	.DEF R0X8=R8
                 	.DEF R0X9=R9
                 	.DEF R0XA=R10
                 	.DEF R0XB=R11
                 	.DEF R0XC=R12
                 	.DEF R0XD=R13
                 	.DEF R0XE=R14
                 	.DEF R0XF=R15
                 	.DEF R0X10=R16
                 	.DEF R0X11=R17
                 	.DEF R0X12=R18
                 	.DEF R0X13=R19
                 	.DEF R0X14=R20
                 	.DEF R0X15=R21
                 	.DEF R0X16=R22
                 	.DEF R0X17=R23
                 	.DEF R0X18=R24
                 	.DEF R0X19=R25
                 	.DEF R0X1A=R26
                 	.DEF R0X1B=R27
                 	.DEF R0X1C=R28
                 	.DEF R0X1D=R29
                 	.DEF R0X1E=R30
                 	.DEF R0X1F=R31
                 
                 	.MACRO __CPD1N
                 	CPI  R30,LOW(@0)
                 	LDI  R26,HIGH(@0)
                 	CPC  R31,R26
                 	LDI  R26,BYTE3(@0)
                 	CPC  R22,R26
                 	LDI  R26,BYTE4(@0)
                 	CPC  R23,R26
                 	.ENDM
                 
                 	.MACRO __CPD2N
                 	CPI  R26,LOW(@0)
                 	LDI  R30,HIGH(@0)
                 	CPC  R27,R30
                 	LDI  R30,BYTE3(@0)
                 	CPC  R24,R30
                 	LDI  R30,BYTE4(@0)
                 	CPC  R25,R30
                 	.ENDM
                 
                 	.MACRO __CPWRR
                 	CP   R@0,R@2
                 	CPC  R@1,R@3
                 	.ENDM
                 
                 	.MACRO __CPWRN
                 	CPI  R@0,LOW(@2)
                 	LDI  R30,HIGH(@2)
                 	CPC  R@1,R30
                 	.ENDM
                 
                 	.MACRO __ADDB1MN
                 	SUBI R30,LOW(-@0-(@1))
                 	.ENDM
                 
                 	.MACRO __ADDB2MN
                 	SUBI R26,LOW(-@0-(@1))
                 	.ENDM
                 
                 	.MACRO __ADDW1MN
                 	SUBI R30,LOW(-@0-(@1))
                 	SBCI R31,HIGH(-@0-(@1))
                 	.ENDM
                 
                 	.MACRO __ADDW2MN
                 	SUBI R26,LOW(-@0-(@1))
                 	SBCI R27,HIGH(-@0-(@1))
                 	.ENDM
                 
                 	.MACRO __ADDW1FN
                 	SUBI R30,LOW(-2*@0-(@1))
                 	SBCI R31,HIGH(-2*@0-(@1))
                 	.ENDM
                 
                 	.MACRO __ADDD1FN
                 	SUBI R30,LOW(-2*@0-(@1))
                 	SBCI R31,HIGH(-2*@0-(@1))
                 	SBCI R22,BYTE3(-2*@0-(@1))
                 	.ENDM
                 
                 	.MACRO __ADDD1N
                 	SUBI R30,LOW(-@0)
                 	SBCI R31,HIGH(-@0)
                 	SBCI R22,BYTE3(-@0)
                 	SBCI R23,BYTE4(-@0)
                 	.ENDM
                 
                 	.MACRO __ADDD2N
                 	SUBI R26,LOW(-@0)
                 	SBCI R27,HIGH(-@0)
                 	SBCI R24,BYTE3(-@0)
                 	SBCI R25,BYTE4(-@0)
                 	.ENDM
                 
                 	.MACRO __SUBD1N
                 	SUBI R30,LOW(@0)
                 	SBCI R31,HIGH(@0)
                 	SBCI R22,BYTE3(@0)
                 	SBCI R23,BYTE4(@0)
                 	.ENDM
                 
                 	.MACRO __SUBD2N
                 	SUBI R26,LOW(@0)
                 	SBCI R27,HIGH(@0)
                 	SBCI R24,BYTE3(@0)
                 	SBCI R25,BYTE4(@0)
                 	.ENDM
                 
                 	.MACRO __ANDBMNN
                 	LDS  R30,@0+@1
                 	ANDI R30,LOW(@2)
                 	STS  @0+@1,R30
                 	.ENDM
                 
                 	.MACRO __ANDWMNN
                 	LDS  R30,@0+@1
                 	ANDI R30,LOW(@2)
                 	STS  @0+@1,R30
                 	LDS  R30,@0+@1+1
                 	ANDI R30,HIGH(@2)
                 	STS  @0+@1+1,R30
                 	.ENDM
                 
                 	.MACRO __ANDD1N
                 	ANDI R30,LOW(@0)
                 	ANDI R31,HIGH(@0)
                 	ANDI R22,BYTE3(@0)
                 	ANDI R23,BYTE4(@0)
                 	.ENDM
                 
                 	.MACRO __ANDD2N
                 	ANDI R26,LOW(@0)
                 	ANDI R27,HIGH(@0)
                 	ANDI R24,BYTE3(@0)
                 	ANDI R25,BYTE4(@0)
                 	.ENDM
                 
                 	.MACRO __ORBMNN
                 	LDS  R30,@0+@1
                 	ORI  R30,LOW(@2)
                 	STS  @0+@1,R30
                 	.ENDM
                 
                 	.MACRO __ORWMNN
                 	LDS  R30,@0+@1
                 	ORI  R30,LOW(@2)
                 	STS  @0+@1,R30
                 	LDS  R30,@0+@1+1
                 	ORI  R30,HIGH(@2)
                 	STS  @0+@1+1,R30
                 	.ENDM
                 
                 	.MACRO __ORD1N
                 	ORI  R30,LOW(@0)
                 	ORI  R31,HIGH(@0)
                 	ORI  R22,BYTE3(@0)
                 	ORI  R23,BYTE4(@0)
                 	.ENDM
                 
                 	.MACRO __ORD2N
                 	ORI  R26,LOW(@0)
                 	ORI  R27,HIGH(@0)
                 	ORI  R24,BYTE3(@0)
                 	ORI  R25,BYTE4(@0)
                 	.ENDM
                 
                 	.MACRO __DELAY_USB
                 	LDI  R24,LOW(@0)
                 __DELAY_USB_LOOP:
                 	DEC  R24
                 	BRNE __DELAY_USB_LOOP
                 	.ENDM
                 
                 	.MACRO __DELAY_USW
                 	LDI  R24,LOW(@0)
                 	LDI  R25,HIGH(@0)
                 __DELAY_USW_LOOP:
                 	SBIW R24,1
                 	BRNE __DELAY_USW_LOOP
                 	.ENDM
                 
                 	.MACRO __CLRD1S
                 	LDI  R30,0
                 	STD  Y+@0,R30
                 	STD  Y+@0+1,R30
                 	STD  Y+@0+2,R30
                 	STD  Y+@0+3,R30
                 	.ENDM
                 
                 	.MACRO __GETD1S
                 	LDD  R30,Y+@0
                 	LDD  R31,Y+@0+1
                 	LDD  R22,Y+@0+2
                 	LDD  R23,Y+@0+3
                 	.ENDM
                 
                 	.MACRO __PUTD1S
                 	STD  Y+@0,R30
                 	STD  Y+@0+1,R31
                 	STD  Y+@0+2,R22
                 	STD  Y+@0+3,R23
                 	.ENDM
                 
                 	.MACRO __PUTD2S
                 	STD  Y+@0,R26
                 	STD  Y+@0+1,R27
                 	STD  Y+@0+2,R24
                 	STD  Y+@0+3,R25
                 	.ENDM
                 
                 	.MACRO __POINTB1MN
                 	LDI  R30,LOW(@0+@1)
                 	.ENDM
                 
                 	.MACRO __POINTW1MN
                 	LDI  R30,LOW(@0+@1)
                 	LDI  R31,HIGH(@0+@1)
                 	.ENDM
                 
                 	.MACRO __POINTD1M
                 	LDI  R30,LOW(@0)
                 	LDI  R31,HIGH(@0)
                 	LDI  R22,BYTE3(@0)
                 	LDI  R23,BYTE4(@0)
                 	.ENDM
                 
                 	.MACRO __POINTW1FN
                 	LDI  R30,LOW(2*@0+@1)
                 	LDI  R31,HIGH(2*@0+@1)
                 	.ENDM
                 
                 	.MACRO __POINTD1FN
                 	LDI  R30,LOW(2*@0+@1)
                 	LDI  R31,HIGH(2*@0+@1)
                 	LDI  R22,BYTE3(2*@0+@1)
                 	LDI  R23,BYTE4(2*@0+@1)
                 	.ENDM
                 
                 	.MACRO __POINTB2MN
                 	LDI  R26,LOW(@0+@1)
                 	.ENDM
                 
                 	.MACRO __POINTW2MN
                 	LDI  R26,LOW(@0+@1)
                 	LDI  R27,HIGH(@0+@1)
                 	.ENDM
                 
                 	.MACRO __POINTBRM
                 	LDI  R@0,LOW(@1)
                 	.ENDM
                 
                 	.MACRO __POINTWRM
                 	LDI  R@0,LOW(@2)
                 	LDI  R@1,HIGH(@2)
                 	.ENDM
                 
                 	.MACRO __POINTBRMN
                 	LDI  R@0,LOW(@1+@2)
                 	.ENDM
                 
                 	.MACRO __POINTWRMN
                 	LDI  R@0,LOW(@2+@3)
                 	LDI  R@1,HIGH(@2+@3)
                 	.ENDM
                 
                 	.MACRO __POINTWRFN
                 	LDI  R@0,LOW(@2*2+@3)
                 	LDI  R@1,HIGH(@2*2+@3)
                 	.ENDM
                 
                 	.MACRO __GETD1N
                 	LDI  R30,LOW(@0)
                 	LDI  R31,HIGH(@0)
                 	LDI  R22,BYTE3(@0)
                 	LDI  R23,BYTE4(@0)
                 	.ENDM
                 
                 	.MACRO __GETD2N
                 	LDI  R26,LOW(@0)
                 	LDI  R27,HIGH(@0)
                 	LDI  R24,BYTE3(@0)
                 	LDI  R25,BYTE4(@0)
                 	.ENDM
                 
                 	.MACRO __GETD2S
                 	LDD  R26,Y+@0
                 	LDD  R27,Y+@0+1
                 	LDD  R24,Y+@0+2
                 	LDD  R25,Y+@0+3
                 	.ENDM
                 
                 	.MACRO __GETB1MN
                 	LDS  R30,@0+@1
                 	.ENDM
                 
                 	.MACRO __GETB1HMN
                 	LDS  R31,@0+@1
                 	.ENDM
                 
                 	.MACRO __GETW1MN
                 	LDS  R30,@0+@1
                 	LDS  R31,@0+@1+1
                 	.ENDM
                 
                 	.MACRO __GETD1MN
                 	LDS  R30,@0+@1
                 	LDS  R31,@0+@1+1
                 	LDS  R22,@0+@1+2
                 	LDS  R23,@0+@1+3
                 	.ENDM
                 
                 	.MACRO __GETBRMN
                 	LDS  R@0,@1+@2
                 	.ENDM
                 
                 	.MACRO __GETWRMN
                 	LDS  R@0,@2+@3
                 	LDS  R@1,@2+@3+1
                 	.ENDM
                 
                 	.MACRO __GETWRZ
                 	LDD  R@0,Z+@2
                 	LDD  R@1,Z+@2+1
                 	.ENDM
                 
                 	.MACRO __GETD2Z
                 	LDD  R26,Z+@0
                 	LDD  R27,Z+@0+1
                 	LDD  R24,Z+@0+2
                 	LDD  R25,Z+@0+3
                 	.ENDM
                 
                 	.MACRO __GETB2MN
                 	LDS  R26,@0+@1
                 	.ENDM
                 
                 	.MACRO __GETW2MN
                 	LDS  R26,@0+@1
                 	LDS  R27,@0+@1+1
                 	.ENDM
                 
                 	.MACRO __GETD2MN
                 	LDS  R26,@0+@1
                 	LDS  R27,@0+@1+1
                 	LDS  R24,@0+@1+2
                 	LDS  R25,@0+@1+3
                 	.ENDM
                 
                 	.MACRO __PUTB1MN
                 	STS  @0+@1,R30
                 	.ENDM
                 
                 	.MACRO __PUTW1MN
                 	STS  @0+@1,R30
                 	STS  @0+@1+1,R31
                 	.ENDM
                 
                 	.MACRO __PUTD1MN
                 	STS  @0+@1,R30
                 	STS  @0+@1+1,R31
                 	STS  @0+@1+2,R22
                 	STS  @0+@1+3,R23
                 	.ENDM
                 
                 	.MACRO __PUTB1EN
                 	LDI  R26,LOW(@0+@1)
                 	LDI  R27,HIGH(@0+@1)
                 	CALL __EEPROMWRB
                 	.ENDM
                 
                 	.MACRO __PUTW1EN
                 	LDI  R26,LOW(@0+@1)
                 	LDI  R27,HIGH(@0+@1)
                 	CALL __EEPROMWRW
                 	.ENDM
                 
                 	.MACRO __PUTD1EN
                 	LDI  R26,LOW(@0+@1)
                 	LDI  R27,HIGH(@0+@1)
                 	CALL __EEPROMWRD
                 	.ENDM
                 
                 	.MACRO __PUTBR0MN
                 	STS  @0+@1,R0
                 	.ENDM
                 
                 	.MACRO __PUTDZ2
                 	STD  Z+@0,R26
                 	STD  Z+@0+1,R27
                 	STD  Z+@0+2,R24
                 	STD  Z+@0+3,R25
                 	.ENDM
                 
                 	.MACRO __PUTBMRN
                 	STS  @0+@1,R@2
                 	.ENDM
                 
                 	.MACRO __PUTWMRN
                 	STS  @0+@1,R@2
                 	STS  @0+@1+1,R@3
                 	.ENDM
                 
                 	.MACRO __PUTBZR
                 	STD  Z+@1,R@0
                 	.ENDM
                 
                 	.MACRO __PUTWZR
                 	STD  Z+@2,R@0
                 	STD  Z+@2+1,R@1
                 	.ENDM
                 
                 	.MACRO __GETW1R
                 	MOV  R30,R@0
                 	MOV  R31,R@1
                 	.ENDM
                 
                 	.MACRO __GETW2R
                 	MOV  R26,R@0
                 	MOV  R27,R@1
                 	.ENDM
                 
                 	.MACRO __GETWRN
                 	LDI  R@0,LOW(@2)
                 	LDI  R@1,HIGH(@2)
                 	.ENDM
                 
                 	.MACRO __PUTW1R
                 	MOV  R@0,R30
                 	MOV  R@1,R31
                 	.ENDM
                 
                 	.MACRO __PUTW2R
                 	MOV  R@0,R26
                 	MOV  R@1,R27
                 	.ENDM
                 
                 	.MACRO __ADDWRN
                 	SUBI R@0,LOW(-@2)
                 	SBCI R@1,HIGH(-@2)
                 	.ENDM
                 
                 	.MACRO __ADDWRR
                 	ADD  R@0,R@2
                 	ADC  R@1,R@3
                 	.ENDM
                 
                 	.MACRO __SUBWRN
                 	SUBI R@0,LOW(@2)
                 	SBCI R@1,HIGH(@2)
                 	.ENDM
                 
                 	.MACRO __SUBWRR
                 	SUB  R@0,R@2
                 	SBC  R@1,R@3
                 	.ENDM
                 
                 	.MACRO __ANDWRN
                 	ANDI R@0,LOW(@2)
                 	ANDI R@1,HIGH(@2)
                 	.ENDM
                 
                 	.MACRO __ANDWRR
                 	AND  R@0,R@2
                 	AND  R@1,R@3
                 	.ENDM
                 
                 	.MACRO __ORWRN
                 	ORI  R@0,LOW(@2)
                 	ORI  R@1,HIGH(@2)
                 	.ENDM
                 
                 	.MACRO __ORWRR
                 	OR   R@0,R@2
                 	OR   R@1,R@3
                 	.ENDM
                 
                 	.MACRO __EORWRR
                 	EOR  R@0,R@2
                 	EOR  R@1,R@3
                 	.ENDM
                 
                 	.MACRO __GETWRS
                 	LDD  R@0,Y+@2
                 	LDD  R@1,Y+@2+1
                 	.ENDM
                 
                 	.MACRO __PUTWSR
                 	STD  Y+@2,R@0
                 	STD  Y+@2+1,R@1
                 	.ENDM
                 
                 	.MACRO __MOVEWRR
                 	MOV  R@0,R@2
                 	MOV  R@1,R@3
                 	.ENDM
                 
                 	.MACRO __INWR
                 	IN   R@0,@2
                 	IN   R@1,@2+1
                 	.ENDM
                 
                 	.MACRO __OUTWR
                 	OUT  @2+1,R@1
                 	OUT  @2,R@0
                 	.ENDM
                 
                 	.MACRO __CALL1MN
                 	LDS  R30,@0+@1
                 	LDS  R31,@0+@1+1
                 	ICALL
                 	.ENDM
                 
                 	.MACRO __CALL1FN
                 	LDI  R30,LOW(2*@0+@1)
                 	LDI  R31,HIGH(2*@0+@1)
                 	CALL __GETW1PF
                 	ICALL
                 	.ENDM
                 
                 	.MACRO __CALL2EN
                 	LDI  R26,LOW(@0+@1)
                 	LDI  R27,HIGH(@0+@1)
                 	CALL __EEPROMRDW
                 	ICALL
                 	.ENDM
                 
                 	.MACRO __GETW1STACK
                 	IN   R26,SPL
                 	IN   R27,SPH
                 	ADIW R26,@0+1
                 	LD   R30,X+
                 	LD   R31,X
                 	.ENDM
                 
                 	.MACRO __NBST
                 	BST  R@0,@1
                 	IN   R30,SREG
                 	LDI  R31,0x40
                 	EOR  R30,R31
                 	OUT  SREG,R30
                 	.ENDM
                 
                 
                 	.MACRO __PUTB1SN
                 	LDD  R26,Y+@0
                 	LDD  R27,Y+@0+1
                 	SUBI R26,LOW(-@1)
                 	SBCI R27,HIGH(-@1)
                 	ST   X,R30
                 	.ENDM
                 
                 	.MACRO __PUTW1SN
                 	LDD  R26,Y+@0
                 	LDD  R27,Y+@0+1
                 	SUBI R26,LOW(-@1)
                 	SBCI R27,HIGH(-@1)
                 	ST   X+,R30
                 	ST   X,R31
                 	.ENDM
                 
                 	.MACRO __PUTD1SN
                 	LDD  R26,Y+@0
                 	LDD  R27,Y+@0+1
                 	SUBI R26,LOW(-@1)
                 	SBCI R27,HIGH(-@1)
                 	CALL __PUTDP1
                 	.ENDM
                 
                 	.MACRO __PUTB1SNS
                 	LDD  R26,Y+@0
                 	LDD  R27,Y+@0+1
                 	ADIW R26,@1
                 	ST   X,R30
                 	.ENDM
                 
                 	.MACRO __PUTW1SNS
                 	LDD  R26,Y+@0
                 	LDD  R27,Y+@0+1
                 	ADIW R26,@1
                 	ST   X+,R30
                 	ST   X,R31
                 	.ENDM
                 
                 	.MACRO __PUTD1SNS
                 	LDD  R26,Y+@0
                 	LDD  R27,Y+@0+1
                 	ADIW R26,@1
                 	CALL __PUTDP1
                 	.ENDM
                 
                 	.MACRO __PUTB1PMN
                 	LDS  R26,@0
                 	LDS  R27,@0+1
                 	SUBI R26,LOW(-@1)
                 	SBCI R27,HIGH(-@1)
                 	ST   X,R30
                 	.ENDM
                 
                 	.MACRO __PUTW1PMN
                 	LDS  R26,@0
                 	LDS  R27,@0+1
                 	SUBI R26,LOW(-@1)
                 	SBCI R27,HIGH(-@1)
                 	ST   X+,R30
                 	ST   X,R31
                 	.ENDM
                 
                 	.MACRO __PUTD1PMN
                 	LDS  R26,@0
                 	LDS  R27,@0+1
                 	SUBI R26,LOW(-@1)
                 	SBCI R27,HIGH(-@1)
                 	CALL __PUTDP1
                 	.ENDM
                 
                 	.MACRO __PUTB1PMNS
                 	LDS  R26,@0
                 	LDS  R27,@0+1
                 	ADIW R26,@1
                 	ST   X,R30
                 	.ENDM
                 
                 	.MACRO __PUTW1PMNS
                 	LDS  R26,@0
                 	LDS  R27,@0+1
                 	ADIW R26,@1
                 	ST   X+,R30
                 	ST   X,R31
                 	.ENDM
                 
                 	.MACRO __PUTD1PMNS
                 	LDS  R26,@0
                 	LDS  R27,@0+1
                 	ADIW R26,@1
                 	CALL __PUTDP1
                 	.ENDM
                 
                 	.MACRO __PUTB1RN
                 	MOVW R26,R@0
                 	SUBI R26,LOW(-@1)
                 	SBCI R27,HIGH(-@1)
                 	ST   X,R30
                 	.ENDM
                 
                 	.MACRO __PUTW1RN
                 	MOVW R26,R@0
                 	SUBI R26,LOW(-@1)
                 	SBCI R27,HIGH(-@1)
                 	ST   X+,R30
                 	ST   X,R31
                 	.ENDM
                 
                 	.MACRO __PUTD1RN
                 	MOVW R26,R@0
                 	SUBI R26,LOW(-@1)
                 	SBCI R27,HIGH(-@1)
                 	CALL __PUTDP1
                 	.ENDM
                 
                 	.MACRO __PUTB1RNS
                 	MOVW R26,R@0
                 	ADIW R26,@1
                 	ST   X,R30
                 	.ENDM
                 
                 	.MACRO __PUTW1RNS
                 	MOVW R26,R@0
                 	ADIW R26,@1
                 	ST   X+,R30
                 	ST   X,R31
                 	.ENDM
                 
                 	.MACRO __PUTD1RNS
                 	MOVW R26,R@0
                 	ADIW R26,@1
                 	CALL __PUTDP1
                 	.ENDM
                 
                 	.MACRO __PUTB1RON
                 	MOV  R26,R@0
                 	MOV  R27,R@1
                 	SUBI R26,LOW(-@2)
                 	SBCI R27,HIGH(-@2)
                 	ST   X,R30
                 	.ENDM
                 
                 	.MACRO __PUTW1RON
                 	MOV  R26,R@0
                 	MOV  R27,R@1
                 	SUBI R26,LOW(-@2)
                 	SBCI R27,HIGH(-@2)
                 	ST   X+,R30
                 	ST   X,R31
                 	.ENDM
                 
                 	.MACRO __PUTD1RON
                 	MOV  R26,R@0
                 	MOV  R27,R@1
                 	SUBI R26,LOW(-@2)
                 	SBCI R27,HIGH(-@2)
                 	CALL __PUTDP1
                 	.ENDM
                 
                 	.MACRO __PUTB1RONS
                 	MOV  R26,R@0
                 	MOV  R27,R@1
                 	ADIW R26,@2
                 	ST   X,R30
                 	.ENDM
                 
                 	.MACRO __PUTW1RONS
                 	MOV  R26,R@0
                 	MOV  R27,R@1
                 	ADIW R26,@2
                 	ST   X+,R30
                 	ST   X,R31
                 	.ENDM
                 
                 	.MACRO __PUTD1RONS
                 	MOV  R26,R@0
                 	MOV  R27,R@1
                 	ADIW R26,@2
                 	CALL __PUTDP1
                 	.ENDM
                 
                 
                 	.MACRO __GETB1SX
                 	MOVW R30,R28
                 	SUBI R30,LOW(-@0)
                 	SBCI R31,HIGH(-@0)
                 	LD   R30,Z
                 	.ENDM
                 
                 	.MACRO __GETB1HSX
                 	MOVW R30,R28
                 	SUBI R30,LOW(-@0)
                 	SBCI R31,HIGH(-@0)
                 	LD   R31,Z
                 	.ENDM
                 
                 	.MACRO __GETW1SX
                 	MOVW R30,R28
                 	SUBI R30,LOW(-@0)
                 	SBCI R31,HIGH(-@0)
                 	LD   R0,Z+
                 	LD   R31,Z
                 	MOV  R30,R0
                 	.ENDM
                 
                 	.MACRO __GETD1SX
                 	MOVW R30,R28
                 	SUBI R30,LOW(-@0)
                 	SBCI R31,HIGH(-@0)
                 	LD   R0,Z+
                 	LD   R1,Z+
                 	LD   R22,Z+
                 	LD   R23,Z
                 	MOVW R30,R0
                 	.ENDM
                 
                 	.MACRO __GETB2SX
                 	MOVW R26,R28
                 	SUBI R26,LOW(-@0)
                 	SBCI R27,HIGH(-@0)
                 	LD   R26,X
                 	.ENDM
                 
                 	.MACRO __GETW2SX
                 	MOVW R26,R28
                 	SUBI R26,LOW(-@0)
                 	SBCI R27,HIGH(-@0)
                 	LD   R0,X+
                 	LD   R27,X
                 	MOV  R26,R0
                 	.ENDM
                 
                 	.MACRO __GETD2SX
                 	MOVW R26,R28
                 	SUBI R26,LOW(-@0)
                 	SBCI R27,HIGH(-@0)
                 	LD   R0,X+
                 	LD   R1,X+
                 	LD   R24,X+
                 	LD   R25,X
                 	MOVW R26,R0
                 	.ENDM
                 
                 	.MACRO __GETBRSX
                 	MOVW R30,R28
                 	SUBI R30,LOW(-@1)
                 	SBCI R31,HIGH(-@1)
                 	LD   R@0,Z
                 	.ENDM
                 
                 	.MACRO __GETWRSX
                 	MOVW R30,R28
                 	SUBI R30,LOW(-@2)
                 	SBCI R31,HIGH(-@2)
                 	LD   R@0,Z+
                 	LD   R@1,Z
                 	.ENDM
                 
                 	.MACRO __LSLW8SX
                 	MOVW R30,R28
                 	SUBI R30,LOW(-@0)
                 	SBCI R31,HIGH(-@0)
                 	LD   R31,Z
                 	CLR  R30
                 	.ENDM
                 
                 	.MACRO __PUTB1SX
                 	MOVW R26,R28
                 	SUBI R26,LOW(-@0)
                 	SBCI R27,HIGH(-@0)
                 	ST   X,R30
                 	.ENDM
                 
                 	.MACRO __PUTW1SX
                 	MOVW R26,R28
                 	SUBI R26,LOW(-@0)
                 	SBCI R27,HIGH(-@0)
                 	ST   X+,R30
                 	ST   X,R31
                 	.ENDM
                 
                 	.MACRO __PUTD1SX
                 	MOVW R26,R28
                 	SUBI R26,LOW(-@0)
                 	SBCI R27,HIGH(-@0)
                 	ST   X+,R30
                 	ST   X+,R31
                 	ST   X+,R22
                 	ST   X,R23
                 	.ENDM
                 
                 	.MACRO __CLRW1SX
                 	MOVW R30,R28
                 	SUBI R30,LOW(-@0)
                 	SBCI R31,HIGH(-@0)
                 	CLR  R0
                 	ST   Z+,R0
                 	ST   Z,R0
                 	.ENDM
                 
                 	.MACRO __CLRD1SX
                 	MOVW R30,R28
                 	SUBI R30,LOW(-@0)
                 	SBCI R31,HIGH(-@0)
                 	CLR  R0
                 	ST   Z+,R0
                 	ST   Z+,R0
                 	ST   Z+,R0
                 	ST   Z,R0
                 	.ENDM
                 
                 	.MACRO __PUTB2SX
                 	MOVW R30,R28
                 	SUBI R30,LOW(-@0)
                 	SBCI R31,HIGH(-@0)
                 	ST   Z,R26
                 	.ENDM
                 
                 	.MACRO __PUTW2SX
                 	MOVW R30,R28
                 	SUBI R30,LOW(-@0)
                 	SBCI R31,HIGH(-@0)
                 	ST   Z+,R26
                 	ST   Z,R27
                 	.ENDM
                 
                 	.MACRO __PUTD2SX
                 	MOVW R30,R28
                 	SUBI R30,LOW(-@0)
                 	SBCI R31,HIGH(-@0)
                 	ST   Z+,R26
                 	ST   Z+,R27
                 	ST   Z+,R24
                 	ST   Z,R25
                 	.ENDM
                 
                 	.MACRO __PUTBSRX
                 	MOVW R30,R28
                 	SUBI R30,LOW(-@0)
                 	SBCI R31,HIGH(-@0)
                 	ST   Z,R@1
                 	.ENDM
                 
                 	.MACRO __PUTWSRX
                 	MOVW R30,R28
                 	SUBI R30,LOW(-@2)
                 	SBCI R31,HIGH(-@2)
                 	ST   Z+,R@0
                 	ST   Z,R@1
                 	.ENDM
                 
                 	.MACRO __PUTB1SNX
                 	MOVW R26,R28
                 	SUBI R26,LOW(-@0)
                 	SBCI R27,HIGH(-@0)
                 	LD   R0,X+
                 	LD   R27,X
                 	MOV  R26,R0
                 	SUBI R26,LOW(-@1)
                 	SBCI R27,HIGH(-@1)
                 	ST   X,R30
                 	.ENDM
                 
                 	.MACRO __PUTW1SNX
                 	MOVW R26,R28
                 	SUBI R26,LOW(-@0)
                 	SBCI R27,HIGH(-@0)
                 	LD   R0,X+
                 	LD   R27,X
                 	MOV  R26,R0
                 	SUBI R26,LOW(-@1)
                 	SBCI R27,HIGH(-@1)
                 	ST   X+,R30
                 	ST   X,R31
                 	.ENDM
                 
                 	.MACRO __PUTD1SNX
                 	MOVW R26,R28
                 	SUBI R26,LOW(-@0)
                 	SBCI R27,HIGH(-@0)
                 	LD   R0,X+
                 	LD   R27,X
                 	MOV  R26,R0
                 	SUBI R26,LOW(-@1)
                 	SBCI R27,HIGH(-@1)
                 	ST   X+,R30
                 	ST   X+,R31
                 	ST   X+,R22
                 	ST   X,R23
                 	.ENDM
                 
                 	.MACRO __MULBRR
                 	MULS R@0,R@1
                 	MOVW R30,R0
                 	.ENDM
                 
                 	.MACRO __MULBRRU
                 	MUL  R@0,R@1
                 	MOVW R30,R0
                 	.ENDM
                 
                 	.MACRO __MULBRR0
                 	MULS R@0,R@1
                 	.ENDM
                 
                 	.MACRO __MULBRRU0
                 	MUL  R@0,R@1
                 	.ENDM
                 
                 	.MACRO __MULBNWRU
                 	LDI  R26,@2
                 	MUL  R26,R@0
                 	MOVW R30,R0
                 	MUL  R26,R@1
                 	ADD  R31,R0
                 	.ENDM
                 
                 	.CSEG
                 	.ORG 0x00
                 
                 ;INTERRUPT VECTORS
000000 940c 037a 	JMP  __RESET
000002 940c 0000 	JMP  0x00
000004 940c 0000 	JMP  0x00
000006 940c 0000 	JMP  0x00
000008 940c 0000 	JMP  0x00
00000a 940c 0000 	JMP  0x00
00000c 940c 0000 	JMP  0x00
00000e 940c 0000 	JMP  0x00
000010 940c 0000 	JMP  0x00
000012 940c 0000 	JMP  0x00
000014 940c 0000 	JMP  0x00
000016 940c 0000 	JMP  0x00
000018 940c 0000 	JMP  0x00
00001a 940c 0000 	JMP  0x00
00001c 940c 0000 	JMP  0x00
00001e 940c 0000 	JMP  0x00
000020 940c 0000 	JMP  0x00
000022 940c 0000 	JMP  0x00
000024 940c 0000 	JMP  0x00
000026 940c 0000 	JMP  0x00
000028 940c 0000 	JMP  0x00
00002a 940c 0000 	JMP  0x00
00002c 940c 0000 	JMP  0x00
00002e 940c 17e9 	JMP  _timer0_ovf_isr
000030 940c 0000 	JMP  0x00
000032 940c 17a4 	JMP  _usart0_rx_isr
000034 940c 0000 	JMP  0x00
000036 940c 0000 	JMP  0x00
000038 940c 0000 	JMP  0x00
00003a 940c 0000 	JMP  0x00
00003c 940c 0000 	JMP  0x00
00003e 940c 0000 	JMP  0x00
000040 940c 0000 	JMP  0x00
000042 940c 0000 	JMP  0x00
000044 940c 0000 	JMP  0x00
000046 940c 0000 	JMP  0x00
000048 940c 17d5 	JMP  _usart1_rx_isr
00004a 940c 0000 	JMP  0x00
00004c 940c 0000 	JMP  0x00
00004e 940c 0000 	JMP  0x00
000050 940c 0000 	JMP  0x00
000052 940c 0000 	JMP  0x00
000054 940c 0000 	JMP  0x00
000056 940c 0000 	JMP  0x00
000058 940c 0000 	JMP  0x00
00005a 940c 0000 	JMP  0x00
00005c 940c 0000 	JMP  0x00
00005e 940c 0000 	JMP  0x00
000060 940c 0000 	JMP  0x00
000062 940c 0000 	JMP  0x00
000064 940c 0000 	JMP  0x00
000066 940c 0000 	JMP  0x00
000068 940c 0000 	JMP  0x00
00006a 940c 0000 	JMP  0x00
00006c 940c 0000 	JMP  0x00
00006e 940c 0000 	JMP  0x00
000070 940c 0000 	JMP  0x00
                 
                 ;GPIOR0 INITIALIZATION
                 	.EQU  __GPIOR0_INIT=0x00
                 
                 ;DATA STACK END MARKER INITIALIZATION
                 __DSTACK_END:
000072 5344
000073 4154
000074 4b43
000075 4e45
000076 0044      	.DB  'D','S','T','A','C','K','E','N','D',0
                 
                 ;HARDWARE STACK END MARKER INITIALIZATION
                 __HSTACK_END:
000077 5348
000078 4154
000079 4b43
00007a 4e45
00007b 0044      	.DB  'H','S','T','A','C','K','E','N','D',0
                 
                 _0x3:
D:\A_With업무\1. With_소프트웨어\1. 구동파일\2. SEC\2. 전문기술그룹\압착지그\1. 구동파일\With설계용(5Inch)\미배포파일_5Inch(150424)_이원욱D요청으로 버젼업_V06\List\WindowPressure.asm(1105): warning: .cseg .db misalignment - padding zero byte
00007c 0006      	.DB  0x6
                 _0x4:
D:\A_With업무\1. With_소프트웨어\1. 구동파일\2. SEC\2. 전문기술그룹\압착지그\1. 구동파일\With설계용(5Inch)\미배포파일_5Inch(150424)_이원욱D요청으로 버젼업_V06\List\WindowPressure.asm(1107): warning: .cseg .db misalignment - padding zero byte
00007d 0001      	.DB  0x1
                 _0x5:
D:\A_With업무\1. With_소프트웨어\1. 구동파일\2. SEC\2. 전문기술그룹\압착지그\1. 구동파일\With설계용(5Inch)\미배포파일_5Inch(150424)_이원욱D요청으로 버젼업_V06\List\WindowPressure.asm(1109): warning: .cseg .db misalignment - padding zero byte
00007e 0001      	.DB  0x1
                 _0x6:
D:\A_With업무\1. With_소프트웨어\1. 구동파일\2. SEC\2. 전문기술그룹\압착지그\1. 구동파일\With설계용(5Inch)\미배포파일_5Inch(150424)_이원욱D요청으로 버젼업_V06\List\WindowPressure.asm(1111): warning: .cseg .db misalignment - padding zero byte
00007f 0002      	.DB  0x2
                 _0x0:
000080 4548
000081 504c
000082 0a00
000083 000d      	.DB  0x48,0x45,0x4C,0x50,0x0,0xA,0xD,0x0
000084 2020
000085 6f43
000086 6d6d
000087 6e61      	.DB  0x20,0x20,0x43,0x6F,0x6D,0x6D,0x61,0x6E
000088 2064
000089 694c
00008a 7473
00008b 0d0a      	.DB  0x64,0x20,0x4C,0x69,0x73,0x74,0xA,0xD
00008c 2000
00008d 4820
00008e 4c45
00008f 2050      	.DB  0x0,0x20,0x20,0x48,0x45,0x4C,0x50,0x20
000090 2020
000091 2020
000092 2020
000093 203a      	.DB  0x20,0x20,0x20,0x20,0x20,0x20,0x3A,0x20
000094 2020
000095 6548
000096 706c
000097 4d20      	.DB  0x20,0x20,0x48,0x65,0x6C,0x70,0x20,0x4D
000098 6165
000099 7373
00009a 6761
00009b 0a65      	.DB  0x65,0x61,0x73,0x73,0x61,0x67,0x65,0xA
00009c 000d
00009d 2020
00009e 4554
00009f 5453      	.DB  0xD,0x0,0x20,0x20,0x54,0x45,0x53,0x54
0000a0 2020
0000a1 2020
0000a2 2020
0000a3 3a20      	.DB  0x20,0x20,0x20,0x20,0x20,0x20,0x20,0x3A
0000a4 2020
0000a5 5420
0000a6 5345
0000a7 2054      	.DB  0x20,0x20,0x20,0x54,0x45,0x53,0x54,0x20
0000a8 6f43
0000a9 6d6d
0000aa 6e61
0000ab 0a64      	.DB  0x43,0x6F,0x6D,0x6D,0x61,0x6E,0x64,0xA
0000ac 000d
0000ad 2020
0000ae 4544
0000af 5542      	.DB  0xD,0x0,0x20,0x20,0x44,0x45,0x42,0x55
0000b0 2047
0000b1 2020
0000b2 2020
0000b3 3a20      	.DB  0x47,0x20,0x20,0x20,0x20,0x20,0x20,0x3A
0000b4 2020
0000b5 4420
0000b6 4245
0000b7 4755      	.DB  0x20,0x20,0x20,0x44,0x45,0x42,0x55,0x47
0000b8 4320
0000b9 6d6f
0000ba 616d
0000bb 646e      	.DB  0x20,0x43,0x6F,0x6D,0x6D,0x61,0x6E,0x64
0000bc 0d0a
0000bd 2000
0000be 5620
0000bf 5245      	.DB  0xA,0xD,0x0,0x20,0x20,0x56,0x45,0x52
0000c0 203f
0000c1 2020
0000c2 2020
0000c3 2020      	.DB  0x3F,0x20,0x20,0x20,0x20,0x20,0x20,0x20
0000c4 203a
0000c5 2020
0000c6 6556
0000c7 7372      	.DB  0x3A,0x20,0x20,0x20,0x56,0x65,0x72,0x73
0000c8 6f69
0000c9 206e
0000ca 6f43
0000cb 6d6d      	.DB  0x69,0x6F,0x6E,0x20,0x43,0x6F,0x6D,0x6D
0000cc 6e61
0000cd 0a64
0000ce 000d
0000cf 4554      	.DB  0x61,0x6E,0x64,0xA,0xD,0x0,0x54,0x45
0000d0 5453
0000d1 5400
0000d2 7365
0000d3 2074      	.DB  0x53,0x54,0x0,0x54,0x65,0x73,0x74,0x20
0000d4 6f4d
0000d5 6564
0000d6 2520
0000d7 0a64      	.DB  0x4D,0x6F,0x64,0x65,0x20,0x25,0x64,0xA
0000d8 000d
0000d9 6554
0000da 7473
0000db 4d20      	.DB  0xD,0x0,0x54,0x65,0x73,0x74,0x20,0x4D
0000dc 646f
0000dd 2065
0000de 6944
0000df 6173      	.DB  0x6F,0x64,0x65,0x20,0x44,0x69,0x73,0x61
0000e0 6c62
0000e1 0a65
0000e2 000d
0000e3 4544      	.DB  0x62,0x6C,0x65,0xA,0xD,0x0,0x44,0x45
0000e4 5542
0000e5 0047
0000e6 6544
0000e7 7562      	.DB  0x42,0x55,0x47,0x0,0x44,0x65,0x62,0x75
0000e8 2067
0000e9 6f4d
0000ea 6564
0000eb 4520      	.DB  0x67,0x20,0x4D,0x6F,0x64,0x65,0x20,0x45
0000ec 616e
0000ed 6c62
0000ee 0a65
0000ef 000d      	.DB  0x6E,0x61,0x62,0x6C,0x65,0xA,0xD,0x0
0000f0 6544
0000f1 7562
0000f2 2067
0000f3 6f4d      	.DB  0x44,0x65,0x62,0x75,0x67,0x20,0x4D,0x6F
0000f4 6564
0000f5 4420
0000f6 7369
0000f7 6261      	.DB  0x64,0x65,0x20,0x44,0x69,0x73,0x61,0x62
0000f8 656c
0000f9 0d0a
0000fa 4300
0000fb 6d6f      	.DB  0x6C,0x65,0xA,0xD,0x0,0x43,0x6F,0x6D
0000fc 616d
0000fd 646e
0000fe 3f20
0000ff 000a      	.DB  0x6D,0x61,0x6E,0x64,0x20,0x3F,0xA,0x0
000100 4f4d
000101 4544
000102 3a20
000103 4f20      	.DB  0x4D,0x4F,0x44,0x45,0x20,0x3A,0x20,0x4F
000104 5443
000105 2041
000106 2020
000107 2020      	.DB  0x43,0x54,0x41,0x20,0x20,0x20,0x20,0x20
000108 5620
000109 4d00
00010a 444f
00010b 2045      	.DB  0x20,0x56,0x0,0x4D,0x4F,0x44,0x45,0x20
00010c 203a
00010d 4154
00010e 4550
00010f 2020      	.DB  0x3A,0x20,0x54,0x41,0x50,0x45,0x20,0x20
000110 2020
000111 2020
000112 0056
000113 4f4d      	.DB  0x20,0x20,0x20,0x20,0x56,0x0,0x4D,0x4F
000114 4544
000115 3a20
000116 4220
000117 5441      	.DB  0x44,0x45,0x20,0x3A,0x20,0x42,0x41,0x54
000118 2054
000119 2020
00011a 2020
00011b 5620      	.DB  0x54,0x20,0x20,0x20,0x20,0x20,0x20,0x56
00011c 4d00
00011d 444f
00011e 2045
00011f 203a      	.DB  0x0,0x4D,0x4F,0x44,0x45,0x20,0x3A,0x20
000120 5445
000121 2043
000122 2020
000123 2020      	.DB  0x45,0x54,0x43,0x20,0x20,0x20,0x20,0x20
000124 2020
000125 0056
000126 3630
000127 5300      	.DB  0x20,0x20,0x56,0x0,0x30,0x36,0x0,0x53
000128 6174
000129 7574
00012a 3a73
00012b 5200      	.DB  0x74,0x61,0x74,0x75,0x73,0x3A,0x0,0x52
00012c 4e55
00012d 2020
00012e 4954
00012f 3a4d      	.DB  0x55,0x4E,0x20,0x20,0x54,0x49,0x4D,0x3A
000130 5300
000131 4f54
000132 2050
000133 4954      	.DB  0x0,0x53,0x54,0x4F,0x50,0x20,0x54,0x49
000134 3a4d
000135 4100
000136 5455
000137 3a4f      	.DB  0x4D,0x3A,0x0,0x41,0x55,0x54,0x4F,0x3A
000138 4500
000139 4744
00013a 3a45
00013b 4d00      	.DB  0x0,0x45,0x44,0x47,0x45,0x3A,0x0,0x4D
00013c 4e41
00013d 3a20
00013e 4100
00013f 4947      	.DB  0x41,0x4E,0x20,0x3A,0x0,0x41,0x47,0x49
000140 474e
000141 003a
000142 3225
000143 2e64      	.DB  0x4E,0x47,0x3A,0x0,0x25,0x32,0x64,0x2E
000144 6425
000145 6573
000146 2063
000147 6425      	.DB  0x25,0x64,0x73,0x65,0x63,0x20,0x25,0x64
000148 252e
000149 3230
00014a 6b64
00014b 6667      	.DB  0x2E,0x25,0x30,0x32,0x64,0x6B,0x67,0x66
00014c 2000
00014d 2020
00014e 2020
00014f 2020      	.DB  0x0,0x20,0x20,0x20,0x20,0x20,0x20,0x20
000150 4553
000151 5554
000152 0050
000153 5020      	.DB  0x53,0x45,0x54,0x55,0x50,0x0,0x20,0x50
000154 4552
000155 5353
000156 5255
000157 2045      	.DB  0x52,0x45,0x53,0x53,0x55,0x52,0x45,0x20
000158 203a
000159 2020
00015a 2020
00015b 6b20      	.DB  0x3A,0x20,0x20,0x20,0x20,0x20,0x20,0x6B
00015c 6667
00015d 2000
00015e 494c
00015f 494d      	.DB  0x67,0x66,0x0,0x20,0x4C,0x49,0x4D,0x49
000160 2054
000161 2528
000162 2064
000163 207e      	.DB  0x54,0x20,0x28,0x25,0x64,0x20,0x7E,0x20
000164 6425
000165 0029
000166 5420
000167 4d49      	.DB  0x25,0x64,0x29,0x0,0x20,0x54,0x49,0x4D
000168 2045
000169 2020
00016a 2020
00016b 203a      	.DB  0x45,0x20,0x20,0x20,0x20,0x20,0x3A,0x20
00016c 2020
00016d 2020
00016e 7320
00016f 6365      	.DB  0x20,0x20,0x20,0x20,0x20,0x73,0x65,0x63
000170 2000
000171 2020
000172 2020
000173 2020      	.DB  0x0,0x20,0x20,0x20,0x20,0x20,0x20,0x20
000174 434f
000175 4154
000176 2500
000177 2e64      	.DB  0x4F,0x43,0x54,0x41,0x0,0x25,0x64,0x2E
000178 3025
000179 6432
00017a 2500
00017b 6432      	.DB  0x25,0x30,0x32,0x64,0x0,0x25,0x32,0x64
00017c 252e
00017d 0064
00017e 2020
00017f 2020      	.DB  0x2E,0x25,0x64,0x0,0x20,0x20,0x20,0x20
000180 2020
000181 5420
000182 5041
000183 0045      	.DB  0x20,0x20,0x20,0x54,0x41,0x50,0x45,0x0
000184 2020
000185 2020
000186 2020
000187 4220      	.DB  0x20,0x20,0x20,0x20,0x20,0x20,0x20,0x42
000188 5441
000189 0054
00018a 2020
00018b 2020      	.DB  0x41,0x54,0x54,0x0,0x20,0x20,0x20,0x20
00018c 2020
00018d 4520
00018e 4354
00018f 2000      	.DB  0x20,0x20,0x20,0x45,0x54,0x43,0x0,0x20
000190 2020
000191 5250
000192 5345
000193 5553      	.DB  0x20,0x20,0x50,0x52,0x45,0x53,0x53,0x55
000194 4552
000195 532d
000196 4554
000197 0050      	.DB  0x52,0x45,0x2D,0x53,0x54,0x45,0x50,0x0
000198 5320
000199 4554
00019a 2050
00019b 2020      	.DB  0x20,0x53,0x54,0x45,0x50,0x20,0x20,0x20
00019c 2020
00019d 203a
00019e 2020
00019f 2020      	.DB  0x20,0x20,0x3A,0x20,0x20,0x20,0x20,0x20
0001a0 5453
0001a1 5045
0001a2 2000
0001a3 2020      	.DB  0x53,0x54,0x45,0x50,0x0,0x20,0x20,0x20
0001a4 2020
0001a5 5453
0001a6 5045
0001a7 542d      	.DB  0x20,0x20,0x53,0x54,0x45,0x50,0x2D,0x54
0001a8 4d49
0001a9 0045
0001aa 4420
0001ab 4c45      	.DB  0x49,0x4D,0x45,0x0,0x20,0x44,0x45,0x4C
0001ac 5941
0001ad 2020
0001ae 2020
0001af 203a      	.DB  0x41,0x59,0x20,0x20,0x20,0x20,0x3A,0x20
0001b0 2020
0001b1 2020
0001b2 7320
0001b3 6365      	.DB  0x20,0x20,0x20,0x20,0x20,0x73,0x65,0x63
0001b4 4b00
0001b5 3d79
0001b6 3025
0001b7 5832      	.DB  0x0,0x4B,0x79,0x3D,0x25,0x30,0x32,0x58
0001b8 452c
0001b9 3d4b
0001ba 3025
0001bb 5832      	.DB  0x2C,0x45,0x4B,0x3D,0x25,0x30,0x32,0x58
0001bc 532c
0001bd 3d73
0001be 3025
0001bf 5832      	.DB  0x2C,0x53,0x73,0x3D,0x25,0x30,0x32,0x58
0001c0 5200
0001c1 6e75
0001c2 253d
0001c3 2c64      	.DB  0x0,0x52,0x75,0x6E,0x3D,0x25,0x64,0x2C
0001c4 7453
0001c5 7065
0001c6 253d
0001c7 6432      	.DB  0x53,0x74,0x65,0x70,0x3D,0x25,0x32,0x64
0001c8 442c
0001c9 796c
0001ca 253d
0001cb 6432      	.DB  0x2C,0x44,0x6C,0x79,0x3D,0x25,0x32,0x64
0001cc 4d00
0001cd 646f
0001ce 3165
0001cf 7453      	.DB  0x0,0x4D,0x6F,0x64,0x65,0x31,0x53,0x74
0001d0 7065
0001d1 3d20
0001d2 2520
0001d3 0064      	.DB  0x65,0x70,0x20,0x3D,0x20,0x25,0x64,0x0
0001d4 4843
0001d5 2030
0001d6 203d
0001d7 6425      	.DB  0x43,0x48,0x30,0x20,0x3D,0x20,0x25,0x64
0001d8 252e
0001d9 3230
0001da 6b64
0001db 6667      	.DB  0x2E,0x25,0x30,0x32,0x64,0x6B,0x67,0x66
0001dc 4900
0001dd 5654
0001de 3420
0001df 416d      	.DB  0x0,0x49,0x54,0x56,0x20,0x34,0x6D,0x41
0001e0 4320
0001e1 6c61
0001e2 6269
0001e3 4d20      	.DB  0x20,0x43,0x61,0x6C,0x69,0x62,0x20,0x4D
0001e4 646f
0001e5 2165
0001e6 0021
0001e7 6553      	.DB  0x6F,0x64,0x65,0x21,0x21,0x0,0x53,0x65
0001e8 2074
0001e9 5256
0001ea 3031
0001eb 2020      	.DB  0x74,0x20,0x56,0x52,0x31,0x30,0x20,0x20
0001ec 2020
0001ed 2020
0001ee 2020
0001ef 2020      	.DB  0x20,0x20,0x20,0x20,0x20,0x20,0x20,0x20
0001f0 2020
0001f1 4100
0001f2 3044
0001f3 3d20      	.DB  0x20,0x20,0x0,0x41,0x44,0x30,0x20,0x3D
0001f4 2520
0001f5 646c
0001f6 3028
0001f7 2578      	.DB  0x20,0x25,0x6C,0x64,0x28,0x30,0x78,0x25
0001f8 3430
0001f9 2958
0001fa 4900
0001fb 5654      	.DB  0x30,0x34,0x58,0x29,0x0,0x49,0x54,0x56
0001fc 3220
0001fd 6d30
0001fe 2041
0001ff 6143      	.DB  0x20,0x32,0x30,0x6D,0x41,0x20,0x43,0x61
000200 696c
000201 2062
000202 6f4d
000203 6564      	.DB  0x6C,0x69,0x62,0x20,0x4D,0x6F,0x64,0x65
000204 0021
000205 6553
000206 2074
000207 5256      	.DB  0x21,0x0,0x53,0x65,0x74,0x20,0x56,0x52
000208 3131
000209 2020
00020a 2020
00020b 2020      	.DB  0x31,0x31,0x20,0x20,0x20,0x20,0x20,0x20
00020c 2020
00020d 2020
00020e 2020
00020f 4900      	.DB  0x20,0x20,0x20,0x20,0x20,0x20,0x0,0x49
000210 5654
000211 3120
000212 2056
000213 6143      	.DB  0x54,0x56,0x20,0x31,0x56,0x20,0x43,0x61
000214 696c
000215 2062
000216 6f4d
000217 6564      	.DB  0x6C,0x69,0x62,0x20,0x4D,0x6F,0x64,0x65
000218 2021
000219 5300
00021a 7465
00021b 5620      	.DB  0x21,0x20,0x0,0x53,0x65,0x74,0x20,0x56
00021c 6c6f
00021d 2074
00021e 5631
00021f 2020      	.DB  0x6F,0x6C,0x74,0x20,0x31,0x56,0x20,0x20
000220 253a
000221 646c
000222 4900
000223 5654      	.DB  0x3A,0x25,0x6C,0x64,0x0,0x49,0x54,0x56
000224 3520
000225 2056
000226 6143
000227 696c      	.DB  0x20,0x35,0x56,0x20,0x43,0x61,0x6C,0x69
000228 2062
000229 6f4d
00022a 6564
00022b 2021      	.DB  0x62,0x20,0x4D,0x6F,0x64,0x65,0x21,0x20
00022c 5300
00022d 7465
00022e 5620
00022f 6c6f      	.DB  0x0,0x53,0x65,0x74,0x20,0x56,0x6F,0x6C
000230 2074
000231 5635
000232 2020
000233 253a      	.DB  0x74,0x20,0x35,0x56,0x20,0x20,0x3A,0x25
000234 646c
000235 5300
000236 4f54
000237 2050      	.DB  0x6C,0x64,0x0,0x53,0x54,0x4F,0x50,0x20
000238 2020
000239 2020
00023a 2020
00023b 5300      	.DB  0x20,0x20,0x20,0x20,0x20,0x20,0x0,0x53
00023c 4154
00023d 5452
00023e 4420
00023f 4c45      	.DB  0x54,0x41,0x52,0x54,0x20,0x44,0x45,0x4C
000240 5941
000241 4a00
000242 4749
000243 4920      	.DB  0x41,0x59,0x0,0x4A,0x49,0x47,0x20,0x49
000244 204e
000245 2020
000246 2020
000247 4300      	.DB  0x4E,0x20,0x20,0x20,0x20,0x20,0x0,0x43
000248 4c59
000249 4420
00024a 2031
00024b 2020      	.DB  0x59,0x4C,0x20,0x44,0x31,0x20,0x20,0x20
00024c 2020
00024d 4300
00024e 4c59
00024f 4420      	.DB  0x20,0x20,0x0,0x43,0x59,0x4C,0x20,0x44
000250 2032
000251 2020
000252 2020
000253 4300      	.DB  0x32,0x20,0x20,0x20,0x20,0x20,0x0,0x43
000254 4c59
000255 4420
000256 574f
000257 204e      	.DB  0x59,0x4C,0x20,0x44,0x4F,0x57,0x4E,0x20
000258 2020
000259 5000
00025a 4552
00025b 5353      	.DB  0x20,0x20,0x0,0x50,0x52,0x45,0x53,0x53
00025c 5255
00025d 0045
00025e 5943
00025f 204c      	.DB  0x55,0x52,0x45,0x0,0x43,0x59,0x4C,0x20
000260 5055
000261 2020
000262 2020
000263 0020      	.DB  0x55,0x50,0x20,0x20,0x20,0x20,0x20,0x0
000264 494a
000265 2047
000266 554f
000267 2054      	.DB  0x4A,0x49,0x47,0x20,0x4F,0x55,0x54,0x20
000268 2020
000269 0020
00026a 4e45
00026b 2044      	.DB  0x20,0x20,0x20,0x0,0x45,0x4E,0x44,0x20
00026c 2020
00026d 2020
00026e 2020
00026f 0020      	.DB  0x20,0x20,0x20,0x20,0x20,0x20,0x20,0x0
000270 4d45
000271 5245
000272 4547
000273 434e      	.DB  0x45,0x4D,0x45,0x52,0x47,0x45,0x4E,0x43
000274 2159
000275 2121
000276 5300
000277 4641      	.DB  0x59,0x21,0x21,0x21,0x0,0x53,0x41,0x46
000278 2045
000279 4553
00027a 534e
00027b 524f      	.DB  0x45,0x20,0x53,0x45,0x4E,0x53,0x4F,0x52
00027c 0021
00027d 4f44
00027e 524f
00027f 5320      	.DB  0x21,0x0,0x44,0x4F,0x4F,0x52,0x20,0x53
000280 4e45
000281 4f53
000282 2152
000283 5000      	.DB  0x45,0x4E,0x53,0x4F,0x52,0x21,0x0,0x50
000284 4552
000285 5353
000286 5255
000287 2045      	.DB  0x52,0x45,0x53,0x53,0x55,0x52,0x45,0x20
000288 4c41
000289 0021
00028a 4552
00028b 4441      	.DB  0x41,0x4C,0x21,0x0,0x52,0x45,0x41,0x44
00028c 2059
00028d 2020
00028e 2020
00028f 2020      	.DB  0x59,0x20,0x20,0x20,0x20,0x20,0x20,0x20
000290 0020
000291 5943
000292 204c
000293 203a      	.DB  0x20,0x0,0x43,0x59,0x4C,0x20,0x3A,0x20
000294 4900
000295 204e
000296 002d
000297 554f      	.DB  0x0,0x49,0x4E,0x20,0x2D,0x0,0x4F,0x55
000298 2d54
000299 4400
00029a 004f      	.DB  0x54,0x2D,0x0,0x44,0x4F,0x0
                 _0x2020000:
00029b 4e2d
00029c 4e41
D:\A_With업무\1. With_소프트웨어\1. 구동파일\2. SEC\2. 전문기술그룹\압착지그\1. 구동파일\With설계용(5Inch)\미배포파일_5Inch(150424)_이원욱D요청으로 버젼업_V06\List\WindowPressure.asm(1249): warning: .cseg .db misalignment - padding zero byte
00029d 0000      	.DB  0x2D,0x4E,0x41,0x4E,0x0
                 _0x204005F:
D:\A_With업무\1. With_소프트웨어\1. 구동파일\2. SEC\2. 전문기술그룹\압착지그\1. 구동파일\With설계용(5Inch)\미배포파일_5Inch(150424)_이원욱D요청으로 버젼업_V06\List\WindowPressure.asm(1251): warning: .cseg .db misalignment - padding zero byte
00029e 0001      	.DB  0x1
                 _0x2040000:
00029f 4e2d
0002a0 4e41
D:\A_With업무\1. With_소프트웨어\1. 구동파일\2. SEC\2. 전문기술그룹\압착지그\1. 구동파일\With설계용(5Inch)\미배포파일_5Inch(150424)_이원욱D요청으로 버젼업_V06\List\WindowPressure.asm(1253): warning: .cseg .db misalignment - padding zero byte
0002a1 0000      	.DB  0x2D,0x4E,0x41,0x4E,0x0
                 _0x20E0003:
D:\A_With업무\1. With_소프트웨어\1. 구동파일\2. SEC\2. 전문기술그룹\압착지그\1. 구동파일\With설계용(5Inch)\미배포파일_5Inch(150424)_이원욱D요청으로 버젼업_V06\List\WindowPressure.asm(1255): warning: .cseg .db misalignment - padding zero byte
0002a2 0032      	.DB  0x32
                 _0x20E0004:
0002a3 012c      	.DB  0x2C,0x1
                 _0x20E0005:
0002a4 2ce2      	.DB  0xE2,0x2C
                 _0x20E0006:
0002a5 ebf0      	.DB  0xF0,0xEB
                 _0x20E0007:
D:\A_With업무\1. With_소프트웨어\1. 구동파일\2. SEC\2. 전문기술그룹\압착지그\1. 구동파일\With설계용(5Inch)\미배포파일_5Inch(150424)_이원욱D요청으로 버젼업_V06\List\WindowPressure.asm(1263): warning: .cseg .db misalignment - padding zero byte
0002a6 0001      	.DB  0x1
                 _0x20E0008:
D:\A_With업무\1. With_소프트웨어\1. 구동파일\2. SEC\2. 전문기술그룹\압착지그\1. 구동파일\With설계용(5Inch)\미배포파일_5Inch(150424)_이원욱D요청으로 버젼업_V06\List\WindowPressure.asm(1265): warning: .cseg .db misalignment - padding zero byte
0002a7 0001      	.DB  0x1
                 _0x20E0009:
D:\A_With업무\1. With_소프트웨어\1. 구동파일\2. SEC\2. 전문기술그룹\압착지그\1. 구동파일\With설계용(5Inch)\미배포파일_5Inch(150424)_이원욱D요청으로 버젼업_V06\List\WindowPressure.asm(1267): warning: .cseg .db misalignment - padding zero byte
0002a8 0001      	.DB  0x1
                 _0x20E000A:
D:\A_With업무\1. With_소프트웨어\1. 구동파일\2. SEC\2. 전문기술그룹\압착지그\1. 구동파일\With설계용(5Inch)\미배포파일_5Inch(150424)_이원욱D요청으로 버젼업_V06\List\WindowPressure.asm(1269): warning: .cseg .db misalignment - padding zero byte
0002a9 0004      	.DB  0x4
                 _0x20E0000:
0002aa 4957
0002ab 444e
0002ac 574f
0002ad 5020      	.DB  0x57,0x49,0x4E,0x44,0x4F,0x57,0x20,0x50
0002ae 4552
0002af 5353
0002b0 4220
0002b1 5341      	.DB  0x52,0x45,0x53,0x53,0x20,0x42,0x41,0x53
0002b2 3a45
0002b3 3000
0002b4 0036
0002b5 4957      	.DB  0x45,0x3A,0x0,0x30,0x36,0x0,0x57,0x49
0002b6 4854
0002b7 5953
0002b8 5453
0002b9 4d45      	.DB  0x54,0x48,0x53,0x59,0x53,0x54,0x45,0x4D
0002ba 4900
0002bb 494e
0002bc 4954
0002bd 4c41      	.DB  0x0,0x49,0x4E,0x49,0x54,0x49,0x41,0x4C
0002be 5a49
0002bf 2e45
0002c0 002e
0002c1 0d0a      	.DB  0x49,0x5A,0x45,0x2E,0x2E,0x0,0xA,0xD
0002c2 2a00
0002c3 2a2a
0002c4 2a2a
0002c5 2a2a      	.DB  0x0,0x2A,0x2A,0x2A,0x2A,0x2A,0x2A,0x2A
0002c6 2a2a
0002c7 2a2a
0002c8 2a2a
0002c9 2a2a      	.DB  0x2A,0x2A,0x2A,0x2A,0x2A,0x2A,0x2A,0x2A
0002ca 2a2a
0002cb 2a2a
0002cc 2a2a
0002cd 2a2a      	.DB  0x2A,0x2A,0x2A,0x2A,0x2A,0x2A,0x2A,0x2A
0002ce 2a2a
0002cf 2a2a
0002d0 2a2a
0002d1 0a2a      	.DB  0x2A,0x2A,0x2A,0x2A,0x2A,0x2A,0x2A,0xA
0002d2 000d
0002d3 202a
0002d4 2020
0002d5 2020      	.DB  0xD,0x0,0x2A,0x20,0x20,0x20,0x20,0x20
0002d6 2020
0002d7 2020
0002d8 5720
0002d9 4e49      	.DB  0x20,0x20,0x20,0x20,0x20,0x57,0x49,0x4E
0002da 4f44
0002db 2057
0002dc 5250
0002dd 5345      	.DB  0x44,0x4F,0x57,0x20,0x50,0x52,0x45,0x53
0002de 5553
0002df 4552
0002e0 2020
0002e1 2a20      	.DB  0x53,0x55,0x52,0x45,0x20,0x20,0x20,0x2A
0002e2 0d0a
0002e3 2a00
0002e4 2020
0002e5 2020      	.DB  0xA,0xD,0x0,0x2A,0x20,0x20,0x20,0x20
0002e6 2020
0002e7 2020
0002e8 2020
0002e9 2020      	.DB  0x20,0x20,0x20,0x20,0x20,0x20,0x20,0x20
0002ea 2020
0002eb 4220
0002ec 7365
0002ed 7074      	.DB  0x20,0x20,0x20,0x42,0x65,0x73,0x74,0x70
0002ee 6f72
0002ef 2020
0002f0 2020
0002f1 2020      	.DB  0x72,0x6F,0x20,0x20,0x20,0x20,0x20,0x20
0002f2 0a2a
0002f3 000d
0002f4 202a
0002f5 2020      	.DB  0x2A,0xA,0xD,0x0,0x2A,0x20,0x20,0x20
0002f6 2020
0002f7 2020
0002f8 2020
0002f9 2020      	.DB  0x20,0x20,0x20,0x20,0x20,0x20,0x20,0x20
0002fa 3220
0002fb 3130
0002fc 2f34
0002fd 3031      	.DB  0x20,0x32,0x30,0x31,0x34,0x2F,0x31,0x30
0002fe 302f
0002ff 2032
000300 2020
000301 2020      	.DB  0x2F,0x30,0x32,0x20,0x20,0x20,0x20,0x20
000302 2a20
000303 0d0a
000304 5000
000305 6f72      	.DB  0x20,0x2A,0xA,0xD,0x0,0x50,0x72,0x6F
000306 706d
000307 3a74
000308 203e
000309 5200      	.DB  0x6D,0x70,0x74,0x3A,0x3E,0x20,0x0,0x52
00030a 6e75
00030b 3d20
00030c 2520
00030d 2c64      	.DB  0x75,0x6E,0x20,0x3D,0x20,0x25,0x64,0x2C
00030e 5320
00030f 6574
000310 2070
000311 203d      	.DB  0x20,0x53,0x74,0x65,0x70,0x20,0x3D,0x20
000312 3225
000313 2c64
000314 4420
000315 6c65      	.DB  0x25,0x32,0x64,0x2C,0x20,0x44,0x65,0x6C
000316 7961
000317 3d20
000318 2520
000319 6433      	.DB  0x61,0x79,0x20,0x3D,0x20,0x25,0x33,0x64
00031a 0d0a
00031b 4b00
00031c 7965
00031d 3d20      	.DB  0xA,0xD,0x0,0x4B,0x65,0x79,0x20,0x3D
00031e 3020
00031f 2578
000320 3230
000321 2c58      	.DB  0x20,0x30,0x78,0x25,0x30,0x32,0x58,0x2C
000322 4520
000323 7478
000324 654b
000325 2079      	.DB  0x20,0x45,0x78,0x74,0x4B,0x65,0x79,0x20
000326 203d
000327 7830
000328 3025
000329 5832      	.DB  0x3D,0x20,0x30,0x78,0x25,0x30,0x32,0x58
00032a 202c
00032b 6553
00032c 736e
00032d 726f      	.DB  0x2C,0x20,0x53,0x65,0x6E,0x73,0x6F,0x72
00032e 3d20
00032f 3020
000330 2578
000331 3230      	.DB  0x20,0x3D,0x20,0x30,0x78,0x25,0x30,0x32
000332 2c58
000333 4520
000334 706d
000335 3d20      	.DB  0x58,0x2C,0x20,0x45,0x6D,0x70,0x20,0x3D
000336 2520
000337 0a64
000338 000d
000339 6f4d      	.DB  0x20,0x25,0x64,0xA,0xD,0x0,0x4D,0x6F
00033a 6564
00033b 5331
00033c 6574
00033d 2070      	.DB  0x64,0x65,0x31,0x53,0x74,0x65,0x70,0x20
00033e 203d
00033f 6425
000340 0d0a
000341 4300      	.DB  0x3D,0x20,0x25,0x64,0xA,0xD,0x0,0x43
000342 3048
000343 3d20
000344 2520
000345 646c      	.DB  0x48,0x30,0x20,0x3D,0x20,0x25,0x6C,0x64
000346 3028
000347 2578
000348 3430
000349 2958      	.DB  0x28,0x30,0x78,0x25,0x30,0x34,0x58,0x29
00034a 0d0a
D:\A_With업무\1. With_소프트웨어\1. 구동파일\2. SEC\2. 전문기술그룹\압착지그\1. 구동파일\With설계용(5Inch)\미배포파일_5Inch(150424)_이원욱D요청으로 버젼업_V06\List\WindowPressure.asm(1311): warning: .cseg .db misalignment - padding zero byte
00034b 0000      	.DB  0xA,0xD,0x0
                 
                 __GLOBAL_INI_TBL:
00034c 0009      	.DW  0x09
00034d 0200      	.DW  0x200
00034e 00e4      	.DW  __DSTACK_END*2
                 
00034f 0009      	.DW  0x09
000350 0000      	.DW  0x00
000351 00ee      	.DW  __HSTACK_END*2
                 
000352 0001      	.DW  0x01
000353 0a0a      	.DW  _PressureStep
000354 00f8      	.DW  _0x3*2
                 
000355 0001      	.DW  0x01
000356 0a0c      	.DW  _PressureStepDelay
000357 00fa      	.DW  _0x4*2
                 
000358 0001      	.DW  0x01
000359 0a0e      	.DW  _sPressureStepDelay
00035a 00fc      	.DW  _0x5*2
                 
00035b 0001      	.DW  0x01
00035c 0a24      	.DW  _bAutoMode
00035d 00fe      	.DW  _0x6*2
                 
00035e 0001      	.DW  0x01
00035f 0b9f      	.DW  __seed_G102
000360 053c      	.DW  _0x204005F*2
                 
000361 0001      	.DW  0x01
000362 0a02      	.DW  _PressureTime
000363 0544      	.DW  _0x20E0003*2
                 
000364 0002      	.DW  0x02
000365 0a06      	.DW  _Pressure
000366 0546      	.DW  _0x20E0004*2
                 
000367 0002      	.DW  0x02
000368 0a10      	.DW  _CalItvMin
000369 0548      	.DW  _0x20E0005*2
                 
00036a 0002      	.DW  0x02
00036b 0a14      	.DW  _CalItvMax
00036c 054a      	.DW  _0x20E0006*2
                 
00036d 0001      	.DW  0x01
00036e 0a19      	.DW  _bDebug
00036f 054c      	.DW  _0x20E0007*2
                 
000370 0001      	.DW  0x01
000371 0a2a      	.DW  _bMenuDisplay
000372 054e      	.DW  _0x20E0008*2
                 
000373 0001      	.DW  0x01
000374 0a2b      	.DW  _bVarDisplay
000375 0550      	.DW  _0x20E0009*2
                 
000376 0001      	.DW  0x01
000377 0a3d      	.DW  _sMode1Step
000378 0552      	.DW  _0x20E000A*2
                 
                 _0xFFFFFFFF:
000379 0000      	.DW  0
                 
                 __RESET:
00037a 94f8      	CLI
00037b 27ee      	CLR  R30
00037c bbef      	OUT  EECR,R30
                 
                 ;INTERRUPT VECTORS ARE PLACED
                 ;AT THE START OF FLASH
00037d e0f1      	LDI  R31,1
00037e bff5      	OUT  MCUCR,R31
00037f bfe5      	OUT  MCUCR,R30
000380 93e0 0074 	STS  XMCRA,R30
000382 93e0 0075 	STS  XMCRB,R30
                 
                 ;DISABLE WATCHDOG
000384 e1f8      	LDI  R31,0x18
000385 95a8      	WDR
000386 b7a4      	IN   R26,MCUSR
000387 7fa7      	CBR  R26,8
000388 bfa4      	OUT  MCUSR,R26
000389 93f0 0060 	STS  WDTCSR,R31
00038b 93e0 0060 	STS  WDTCSR,R30
                 
                 ;CLEAR R2-R14
00038d e08d      	LDI  R24,(14-2)+1
00038e e0a2      	LDI  R26,2
00038f 27bb      	CLR  R27
                 __CLEAR_REG:
000390 93ed      	ST   X+,R30
000391 958a      	DEC  R24
000392 f7e9      	BRNE __CLEAR_REG
                 
                 ;CLEAR SRAM
000393 e080      	LDI  R24,LOW(0x2000)
000394 e290      	LDI  R25,HIGH(0x2000)
000395 e0a0      	LDI  R26,LOW(0x200)
000396 e0b2      	LDI  R27,HIGH(0x200)
                 __CLEAR_SRAM:
000397 93ed      	ST   X+,R30
000398 9701      	SBIW R24,1
000399 f7e9      	BRNE __CLEAR_SRAM
                 
                 ;GLOBAL VARIABLES INITIALIZATION
00039a e9e8      	LDI  R30,LOW(__GLOBAL_INI_TBL*2)
00039b e0f6      	LDI  R31,HIGH(__GLOBAL_INI_TBL*2)
                 __GLOBAL_INI_NEXT:
00039c 9185      	LPM  R24,Z+
00039d 9195      	LPM  R25,Z+
00039e 9700      	SBIW R24,0
00039f f061      	BREQ __GLOBAL_INI_END
0003a0 91a5      	LPM  R26,Z+
0003a1 91b5      	LPM  R27,Z+
0003a2 9005      	LPM  R0,Z+
0003a3 9015      	LPM  R1,Z+
0003a4 01bf      	MOVW R22,R30
0003a5 01f0      	MOVW R30,R0
                 __GLOBAL_INI_LOOP:
0003a6 9005      	LPM  R0,Z+
0003a7 920d      	ST   X+,R0
0003a8 9701      	SBIW R24,1
0003a9 f7e1      	BRNE __GLOBAL_INI_LOOP
0003aa 01fb      	MOVW R30,R22
0003ab cff0      	RJMP __GLOBAL_INI_NEXT
                 __GLOBAL_INI_END:
                 
0003ac bf8c      	OUT  EIND,R24
                 
                 ;GPIOR0 INITIALIZATION
0003ad e0e0      	LDI  R30,__GPIOR0_INIT
0003ae bbee      	OUT  GPIOR0,R30
                 
                 ;STACK POINTER INITIALIZATION
0003af efef      	LDI  R30,LOW(0x21FF)
0003b0 bfed      	OUT  SPL,R30
0003b1 e2e1      	LDI  R30,HIGH(0x21FF)
0003b2 bfee      	OUT  SPH,R30
                 
                 ;DATA STACK POINTER INITIALIZATION
0003b3 e0c0      	LDI  R28,LOW(0xA00)
0003b4 e0da      	LDI  R29,HIGH(0xA00)
                 
0003b5 940c 1892 	JMP  _main
                 
                 	.ESEG
                 	.ORG 0
                 
                 	.DSEG
                 	.ORG 0xA00
                 
                 	.CSEG
                 ;#include "hwdefine.h"
                 	#ifndef __SLEEP_DEFINED__
                 	#define __SLEEP_DEFINED__
                 	.EQU __se_bit=0x01
                 	.EQU __sm_mask=0x0E
                 	.EQU __sm_powerdown=0x04
                 	.EQU __sm_powersave=0x06
                 	.EQU __sm_standby=0x0C
                 	.EQU __sm_ext_standby=0x0E
                 	.EQU __sm_adc_noise_red=0x02
                 	.SET power_ctrl_reg=smcr
                 	#endif
                 ;
                 ;unsigned int PressureStep = PRESSURE_STEP_DEFAULT;				// ITV 설정 압력 Step	// Default
                 
                 	.DSEG
                 ;unsigned int PressureStepDelay = 1;								// setp별 압착 딜레이
                 ;unsigned int sPressureStepDelay = PRESSURE_STEP_DELAY_DEFAULT;	// setp별 압착 딜레이	// Default
                 ;unsigned char bAutoMode = 2;   			// 자동/수동 상태
                 ;unsigned int DownPressure = 0;			// 압력 Step 동작시 압력값
                 ;unsigned char bDownPressureEnd = 0;		// 압력 Step 완료
                 ;unsigned char bPressureReward = 0;		// 압력 보상
                 ;
                 ;void CommSubroutine(void)
                 ; 0000 000C {
                 
                 	.CSEG
                 _CommSubroutine:
                 ; 0000 000D     unsigned int tQueueLast = QueueLast;        //루틴 수행중 QueueLast 값이 바뀔수 있으므로 수신확인되면 QueueLast Count 값을 Buffer(tQueueLast)에 저장
                 ; 0000 000E 
                 ; 0000 000F     if (QueueFirst != tQueueLast)
0003b7 931a      	ST   -Y,R17
0003b8 930a      	ST   -Y,R16
                 ;	tQueueLast -> R16,R17
                +
0003b9 9100 0b5a+LDS R16 , 0 + _QueueLast
0003bb 9110 0b5b+LDS R17 , 0 + _QueueLast + 1
                 	__GETWRMN 16,17,0,_QueueLast
0003bd 940e 1f85 	CALL SUBOPT_0x0
0003bf f411      	BRNE PC+3
0003c0 940c 04aa 	JMP _0x7
                 ; 0000 0010     {
                 ; 0000 0011         while(QueueFirst != tQueueLast)
                 _0x8:
0003c2 940e 1f85 	CALL SUBOPT_0x0
0003c4 f411      	BRNE PC+3
0003c5 940c 04aa 	JMP _0xA
                 ; 0000 0012         {
                 ; 0000 0013             CommCommandBuffer[CommCommandSize++] = QueueData[QueueFirst++];        //CommCommandBuffer에 수신 Data를 하나씩 저장
0003c7 e8ae      	LDI  R26,LOW(_CommCommandSize)
0003c8 e0bb      	LDI  R27,HIGH(_CommCommandSize)
0003c9 940e 1f8c 	CALL SUBOPT_0x1
0003cb 5ae4      	SUBI R30,LOW(-_CommCommandBuffer)
0003cc 4ff4      	SBCI R31,HIGH(-_CommCommandBuffer)
0003cd 010f      	MOVW R0,R30
0003ce e5a8      	LDI  R26,LOW(_QueueFirst)
0003cf e0bb      	LDI  R27,HIGH(_QueueFirst)
0003d0 940e 1f8c 	CALL SUBOPT_0x1
0003d2 5ae8      	SUBI R30,LOW(-_QueueData)
0003d3 4ff5      	SBCI R31,HIGH(-_QueueData)
0003d4 81e0      	LD   R30,Z
0003d5 01d0      	MOVW R26,R0
0003d6 93ec      	ST   X,R30
                 ; 0000 0014             if (CommCommandSize >= COMMAND_BUFFER_SIZE) CommCommandSize = 0;
0003d7 91a0 0b8e 	LDS  R26,_CommCommandSize
0003d9 91b0 0b8f 	LDS  R27,_CommCommandSize+1
0003db 97d2      	SBIW R26,50
0003dc f410      	BRSH PC+3
0003dd 940c 03e1 	JMP _0xB
0003df 940e 1f93 	CALL SUBOPT_0x2
                 ; 0000 0015             if (QueueFirst >= QUEUE_SIZE) QueueFirst = 0;
                 _0xB:
0003e1 91a0 0b58 	LDS  R26,_QueueFirst
0003e3 91b0 0b59 	LDS  R27,_QueueFirst+1
0003e5 30a0      	CPI  R26,LOW(0x100)
0003e6 e0e1      	LDI  R30,HIGH(0x100)
0003e7 07be      	CPC  R27,R30
0003e8 f410      	BRSH PC+3
0003e9 940c 03f1 	JMP _0xC
0003eb e0e0      	LDI  R30,LOW(0)
0003ec e0f0      	LDI  R31,HIGH(0)
0003ed 93e0 0b58 	STS  _QueueFirst,R30
0003ef 93f0 0b59 	STS  _QueueFirst+1,R31
                 ; 0000 0016 
                 ; 0000 0017 			if ((CommCommandBuffer[CommCommandSize - 1] == '\n') || (CommCommandBuffer[CommCommandSize - 1] == '\r'))    //데이터 마지막에 '\n','r'에 입력이 되면 수신 완료
                 _0xC:
0003f1 940e 1f9a 	CALL SUBOPT_0x3
0003f3 30ea      	CPI  R30,LOW(0xA)
0003f4 f411      	BRNE PC+3
0003f5 940c 03fe 	JMP _0xE
0003f7 940e 1f9a 	CALL SUBOPT_0x3
0003f9 30ed      	CPI  R30,LOW(0xD)
0003fa f411      	BRNE PC+3
0003fb 940c 03fe 	JMP _0xE
0003fd c0ab      	RJMP _0xD
                 _0xE:
                 ; 0000 0018 			{
                 ; 0000 0019                 CommCommandBuffer[CommCommandSize] = 0;                                                                                                                       //CommCommandSize - 1 은 수신 시작시 QueueFirst Count를 증가 시키0003fe 91e0 0b8e  시작했기때문에 마지막 Data를 읽으려면 1Byte전 Data를 읽어야 한다.
000400 91f0 0b8f 	LDS  R30,_CommCommandSize
000402 5ae4      	LDS  R31,_CommCommandSize+1
000403 4ff4      	SUBI R30,LOW(-_CommCommandBuffer)
000404 e0a0      	SBCI R31,HIGH(-_CommCommandBuffer)
000405 83a0      	LDI  R26,LOW(0)
                 	STD  Z+0,R26
000406 91a0 0b8e ; 0000 001A 				if (CommCommandSize != 1)        //CommCommandSize를 위에서 증가 시켰기 때문에 0은 읽을 수 없고, 'n','r'이 1Byte를 차지하므로 CommandSize가 1일 경우에는 Data가 없다고 판단. 1보다 클때부터 Data를 살핀다.
000408 91b0 0b8f 	LDS  R26,_CommCommandSize
00040a 9711      	LDS  R27,_CommCommandSize+1
00040b f411      	SBIW R26,1
00040c 940c 04a7 	BRNE PC+3
                 	JMP _0x10
                 ; 0000 001B 				{
                 ; 0000 001C //                    MainComm("CMD[%d][%d]-%s\n", QueueFirst, tQueueLast, CommCommandBuffer);
                 ; 0000 001D 
00040e 91e0 0b8e ; 0000 001E 					switch(CommCommandSize - 1)
000410 91f0 0b8f 	LDS  R30,_CommCommandSize
000412 9731      	LDS  R31,_CommCommandSize+1
                 	SBIW R30,1
                 ; 0000 001F 					{
000413 30e3      ; 0000 0020                         case 3:
000414 e0a0      	CPI  R30,LOW(0x3)
000415 07fa      	LDI  R26,HIGH(0x3)
000416 f011      	CPC  R31,R26
000417 940c 041a 	BREQ PC+3
                 	JMP _0x14
000419 c006      ; 0000 0021                         case 1:
                 	RJMP _0x15
00041a 30e1      _0x14:
00041b e0a0      	CPI  R30,LOW(0x1)
00041c 07fa      	LDI  R26,HIGH(0x1)
00041d f011      	CPC  R31,R26
00041e 940c 042d 	BREQ PC+3
                 	JMP _0x16
                 _0x15:
000420 e4e8      ; 0000 0022                             CommCommandBuffer[0] = 'H';
000421 93e0 0b5c 	LDI  R30,LOW(72)
                 	STS  _CommCommandBuffer,R30
000423 e4e5      ; 0000 0023                             CommCommandBuffer[1] = 'E';
                +
000424 93e0 0b5d+STS _CommCommandBuffer + 1 , R30
                 	__PUTB1MN _CommCommandBuffer,1
                 ; 0000 0024                             CommCommandBuffer[2] = 'L';
000426 e4ec      	LDI  R30,LOW(76)
                +
000427 93e0 0b5e+STS _CommCommandBuffer + 2 , R30
                 	__PUTB1MN _CommCommandBuffer,2
                 ; 0000 0025                             CommCommandBuffer[3] = 'P';
000429 e5e0      	LDI  R30,LOW(80)
                +
00042a 93e0 0b5f+STS _CommCommandBuffer + 3 , R30
                 	__PUTB1MN _CommCommandBuffer,3
                 ; 0000 0026 						case 4:
00042c c006      	RJMP _0x17
                 _0x16:
00042d 30e4      	CPI  R30,LOW(0x4)
00042e e0a0      	LDI  R26,HIGH(0x4)
00042f 07fa      	CPC  R31,R26
000430 f011      	BREQ PC+3
000431 940c 047b 	JMP _0x18
                 _0x17:
                 ; 0000 0027                             if (strncmpf((char *)CommCommandBuffer, "HELP", 4) == 0)
000433 940e 1fa3 	CALL SUBOPT_0x4
                +
000435 e0e0     +LDI R30 , LOW ( 2 * _0x0 + 0 )
000436 e0f1     +LDI R31 , HIGH ( 2 * _0x0 + 0 )
                 	__POINTW1FN _0x0,0
000437 940e 1fa8 	CALL SUBOPT_0x5
000439 f011      	BREQ PC+3
00043a 940c 0455 	JMP _0x19
                 ; 0000 0028 							{
                 ; 0000 0029 
                 ; 0000 002A                                 DebugComm("\n\r");
                +
00043c e0e5     +LDI R30 , LOW ( 2 * _0x0 + 5 )
00043d e0f1     +LDI R31 , HIGH ( 2 * _0x0 + 5 )
                 	__POINTW1FN _0x0,5
00043e 940e 1fb0 	CALL SUBOPT_0x6
                 ; 0000 002B                                 DebugComm("  Command List\n\r");
                +
000440 e0e8     +LDI R30 , LOW ( 2 * _0x0 + 8 )
000441 e0f1     +LDI R31 , HIGH ( 2 * _0x0 + 8 )
                 	__POINTW1FN _0x0,8
000442 940e 1fb0 	CALL SUBOPT_0x6
                 ; 0000 002C 
                 ; 0000 002D                                 DebugComm("  HELP       :   Help Meassage\n\r");
                +
000444 e1e9     +LDI R30 , LOW ( 2 * _0x0 + 25 )
000445 e0f1     +LDI R31 , HIGH ( 2 * _0x0 + 25 )
                 	__POINTW1FN _0x0,25
000446 940e 1fb0 	CALL SUBOPT_0x6
                 ; 0000 002E                                 DebugComm("  TEST       :   TEST Command\n\r");
                +
000448 e3ea     +LDI R30 , LOW ( 2 * _0x0 + 58 )
000449 e0f1     +LDI R31 , HIGH ( 2 * _0x0 + 58 )
                 	__POINTW1FN _0x0,58
00044a 940e 1fb0 	CALL SUBOPT_0x6
                 ; 0000 002F                                 DebugComm("  DEBUG      :   DEBUG Command\n\r");
                +
00044c e5ea     +LDI R30 , LOW ( 2 * _0x0 + 90 )
00044d e0f1     +LDI R31 , HIGH ( 2 * _0x0 + 90 )
                 	__POINTW1FN _0x0,90
00044e 940e 1fb0 	CALL SUBOPT_0x6
                 ; 0000 0030                                 DebugComm("  VER?       :   Version Command\n\r");
                +
000450 e7eb     +LDI R30 , LOW ( 2 * _0x0 + 123 )
000451 e0f1     +LDI R31 , HIGH ( 2 * _0x0 + 123 )
                 	__POINTW1FN _0x0,123
000452 940e 1fb0 	CALL SUBOPT_0x6
                 ; 0000 0031                             }
                 ; 0000 0032 							else if (strncmpf((char *)CommCommandBuffer, "TEST", 4) == 0)
000454 c025      	RJMP _0x1A
                 _0x19:
000455 940e 1fa3 	CALL SUBOPT_0x4
                +
000457 e9ee     +LDI R30 , LOW ( 2 * _0x0 + 158 )
000458 e0f1     +LDI R31 , HIGH ( 2 * _0x0 + 158 )
                 	__POINTW1FN _0x0,158
000459 940e 1fa8 	CALL SUBOPT_0x5
00045b f011      	BREQ PC+3
00045c 940c 047a 	JMP _0x1B
                 ; 0000 0033                             {
                 ; 0000 0034                                 TestMode = Asc2Hex(CommCommandBuffer[4]);
                +
00045e 91e0 0b60+LDS R30 , _CommCommandBuffer + 4
                 	__GETB1MN _CommCommandBuffer,4
000460 93ea      	ST   -Y,R30
000461 940e 19d0 	CALL _Asc2Hex
000463 93e0 0a21 	STS  _TestMode,R30
                 ; 0000 0035                                 if(TestMode) DebugComm("Test Mode %d\n\r", TestMode);
000465 30e0      	CPI  R30,0
000466 f411      	BRNE PC+3
000467 940c 0476 	JMP _0x1C
                +
000469 eae3     +LDI R30 , LOW ( 2 * _0x0 + 163 )
00046a e0f1     +LDI R31 , HIGH ( 2 * _0x0 + 163 )
                 	__POINTW1FN _0x0,163
00046b 93fa      	ST   -Y,R31
00046c 93ea      	ST   -Y,R30
00046d 91e0 0a21 	LDS  R30,_TestMode
00046f 940e 1fb7 	CALL SUBOPT_0x7
000471 e084      	LDI  R24,4
000472 940e 1b1c 	CALL _Uartprintf0
000474 9626      	ADIW R28,6
                 ; 0000 0036                                 else DebugComm("Test Mode Disable\n\r");
000475 c004      	RJMP _0x1D
                 _0x1C:
                +
000476 ebe2     +LDI R30 , LOW ( 2 * _0x0 + 178 )
000477 e0f1     +LDI R31 , HIGH ( 2 * _0x0 + 178 )
                 	__POINTW1FN _0x0,178
000478 940e 1fb0 	CALL SUBOPT_0x6
                 ; 0000 0037                             }
                 _0x1D:
                 ; 0000 0038                             break;
                 _0x1B:
                 _0x1A:
00047a c02c      	RJMP _0x13
                 ; 0000 0039                         case 5:
                 _0x18:
00047b 30e5      	CPI  R30,LOW(0x5)
00047c e0a0      	LDI  R26,HIGH(0x5)
00047d 07fa      	CPC  R31,R26
00047e f011      	BREQ PC+3
00047f 940c 04a3 	JMP _0x22
                 ; 0000 003A                             if (strncmpf((char *)CommCommandBuffer, "DEBUG", 5) == 0)
000481 940e 1fa3 	CALL SUBOPT_0x4
                +
000483 ece6     +LDI R30 , LOW ( 2 * _0x0 + 198 )
000484 e0f1     +LDI R31 , HIGH ( 2 * _0x0 + 198 )
                 	__POINTW1FN _0x0,198
000485 93fa      	ST   -Y,R31
000486 93ea      	ST   -Y,R30
000487 e0e5      	LDI  R30,LOW(5)
000488 93ea      	ST   -Y,R30
000489 940e 178c 	CALL _strncmpf
00048b 30e0      	CPI  R30,0
00048c f011      	BREQ PC+3
00048d 940c 04a2 	JMP _0x1F
                 ; 0000 003B                             {
                 ; 0000 003C                             	bDebug = !bDebug;
00048f 91e0 0a19 	LDS  R30,_bDebug
000491 940e 260f 	CALL __LNEGB1
000493 93e0 0a19 	STS  _bDebug,R30
                 ; 0000 003D                                 if (bDebug)
000495 30e0      	CPI  R30,0
000496 f411      	BRNE PC+3
000497 940c 049e 	JMP _0x20
                 ; 0000 003E                                 {
                 ; 0000 003F                                     DebugComm("Debug Mode Enable\n\r");
                +
000499 ecec     +LDI R30 , LOW ( 2 * _0x0 + 204 )
00049a e0f1     +LDI R31 , HIGH ( 2 * _0x0 + 204 )
                 	__POINTW1FN _0x0,204
00049b 940e 1fb0 	CALL SUBOPT_0x6
                 ; 0000 0040                                 }
                 ; 0000 0041                                 else
00049d c004      	RJMP _0x21
                 _0x20:
                 ; 0000 0042                                 {
                 ; 0000 0043                                     DebugComm("Debug Mode Disable\n\r");
                +
00049e eee0     +LDI R30 , LOW ( 2 * _0x0 + 224 )
00049f e0f1     +LDI R31 , HIGH ( 2 * _0x0 + 224 )
                 	__POINTW1FN _0x0,224
0004a0 940e 1fb0 	CALL SUBOPT_0x6
                 ; 0000 0044 								}
                 _0x21:
                 ; 0000 0045                             }
                 ; 0000 0046                             break;
                 _0x1F:
0004a2 c004      	RJMP _0x13
                 ; 0000 0047                        	default:
                 _0x22:
                 ; 0000 0048 							#ifdef DEBUG_MODE
                 ; 0000 0049                            	DebugComm("Command ?\n");
                +
0004a3 efe5     +LDI R30 , LOW ( 2 * _0x0 + 245 )
0004a4 e0f1     +LDI R31 , HIGH ( 2 * _0x0 + 245 )
                 	__POINTW1FN _0x0,245
0004a5 940e 1fb0 	CALL SUBOPT_0x6
                 ; 0000 004A                             #else
                 ; 0000 004B                             MainComm("ER1:%s\n", CommCommandBuffer);
                 ; 0000 004C                             #endif
                 ; 0000 004D 	                        break;
                 ; 0000 004E     	           	}
                 _0x13:
                 ; 0000 004F         	    }
                 ; 0000 0050            	    CommCommandSize = 0;
                 _0x10:
0004a7 940e 1f93 	CALL SUBOPT_0x2
                 ; 0000 0051 			}
                 ; 0000 0052 		}
                 _0xD:
0004a9 cf18      	RJMP _0x8
                 _0xA:
                 ; 0000 0053 	}
                 ; 0000 0054 
                 ; 0000 0055 }
                 _0x7:
0004aa 9109      	LD   R16,Y+
0004ab 9119      	LD   R17,Y+
0004ac 9508      	RET
                 ;
                 ;void SetBuzzer(unsigned char Mode, unsigned char Repeat)
                 ; 0000 0058 {
                 _SetBuzzer:
                 ; 0000 0059 	switch(Mode)
                 ;	Mode -> Y+1
                 ;	Repeat -> Y+0
0004ad 81e9      	LDD  R30,Y+1
                 ; 0000 005A     {
                 ; 0000 005B 		case 0:
0004ae 30e0      	CPI  R30,0
0004af f011      	BREQ PC+3
0004b0 940c 04b7 	JMP _0x26
                 ; 0000 005C         	BuzzerOnTime = 10;
0004b2 e0ea      	LDI  R30,LOW(10)
0004b3 e0f0      	LDI  R31,HIGH(10)
0004b4 940e 1fbd 	CALL SUBOPT_0x8
                 ; 0000 005D             BuzzerOffTime = 10;
                 ; 0000 005E             break;
0004b6 c008      	RJMP _0x25
                 ; 0000 005F         case 1:
                 _0x26:
0004b7 30e1      	CPI  R30,LOW(0x1)
0004b8 f011      	BREQ PC+3
0004b9 940c 04bf 	JMP _0x25
                 ; 0000 0060         	BuzzerOnTime = 50;
0004bb e3e2      	LDI  R30,LOW(50)
0004bc e0f0      	LDI  R31,HIGH(50)
0004bd 940e 1fbd 	CALL SUBOPT_0x8
                 ; 0000 0061             BuzzerOffTime = 10;
                 ; 0000 0062             break;
                 ; 0000 0063     }
                 _0x25:
                 ; 0000 0064     BuzzerOnCount = BuzzerOnTime;
0004bf 940e 1fc8 	CALL SUBOPT_0x9
                 ; 0000 0065     BuzzerOffCount = BuzzerOffTime;
                 ; 0000 0066     BuzzerRepeatCount = Repeat;
0004c1 81e8      	LD   R30,Y
0004c2 e0f0      	LDI  R31,0
0004c3 93e0 0a49 	STS  _BuzzerRepeatCount,R30
0004c5 93f0 0a4a 	STS  _BuzzerRepeatCount+1,R31
                 ; 0000 0067 }
0004c7 9622      	ADIW R28,2
0004c8 9508      	RET
                 ;
                 ;void RunSubroutine(void)	// 10ms
                 ; 0000 006A {
                 _RunSubroutine:
                 ; 0000 006B 	static unsigned int TactTimeCheckIn = 0;
                 ; 0000 006C 	static unsigned int TactTimeCheckOut = 0;
                 ; 0000 006D 	static unsigned int TactTimeCheckDown = 0;
                 ; 0000 006E 	static unsigned int TactTimeCheckUp = 0;
                 ; 0000 006F 
                 ; 0000 0070     if (bRun)
0004c9 91e0 0a2d 	LDS  R30,_bRun
0004cb 30e0      	CPI  R30,0
0004cc f411      	BRNE PC+3
0004cd 940c 0699 	JMP _0x28
                 ; 0000 0071     {
                 ; 0000 0072 		if (bEmoState == 1 || bReturnSensor == 1)		// Emo 누른 상태, 인전 센서
0004cf 91a0 0a55 	LDS  R26,_bEmoState
0004d1 30a1      	CPI  R26,LOW(0x1)
0004d2 f411      	BRNE PC+3
0004d3 940c 04dc 	JMP _0x2A
0004d5 91a0 0a18 	LDS  R26,_bReturnSensor
0004d7 30a1      	CPI  R26,LOW(0x1)
0004d8 f411      	BRNE PC+3
0004d9 940c 04dc 	JMP _0x2A
0004db c00a      	RJMP _0x29
                 _0x2A:
                 ; 0000 0073 		{
                 ; 0000 0074 			SetItv(PRESSURE_STOP);
0004dc 940e 1fd9 	CALL SUBOPT_0xA
0004de 940e 1c1e 	CALL _SetItv
                 ; 0000 0075 			bRunAlarm |= 0x04;
0004e0 91e0 0a3b 	LDS  R30,_bRunAlarm
0004e2 60e4      	ORI  R30,4
0004e3 93e0 0a3b 	STS  _bRunAlarm,R30
                 ; 0000 0076 
                 ; 0000 0077 		}else {
0004e5 c1b2      	RJMP _0x2C
                 _0x29:
                 ; 0000 0078 
                 ; 0000 0079 			if (RunStep == RUN_STOP) SetItv(PRESSURE_NOMAL);
0004e6 91e0 0a2e 	LDS  R30,_RunStep
0004e8 30e0      	CPI  R30,0
0004e9 f011      	BREQ PC+3
0004ea 940c 04ee 	JMP _0x2D
0004ec 940e 1fde 	CALL SUBOPT_0xB
                 ; 0000 007A 
                 ; 0000 007B 			// **************************************************************************************************************************************************
                 ; 0000 007C 			if ((bEmoState == 2) || bReturnSensor == 2)	// Run중 센서 & Emo 받으면
                 _0x2D:
0004ee 91a0 0a55 	LDS  R26,_bEmoState
0004f0 30a2      	CPI  R26,LOW(0x2)
0004f1 f411      	BRNE PC+3
0004f2 940c 04fb 	JMP _0x2F
0004f4 91a0 0a18 	LDS  R26,_bReturnSensor
0004f6 30a2      	CPI  R26,LOW(0x2)
0004f7 f411      	BRNE PC+3
0004f8 940c 04fb 	JMP _0x2F
0004fa c007      	RJMP _0x2E
                 _0x2F:
                 ; 0000 007D 			{
                 ; 0000 007E 				SetItv(PRESSURE_RETURN);
0004fb 940e 1fde 	CALL SUBOPT_0xB
                 ; 0000 007F 				bRunAlarm |= 0x08;
0004fd 91e0 0a3b 	LDS  R30,_bRunAlarm
0004ff 60e8      	ORI  R30,8
000500 93e0 0a3b 	STS  _bRunAlarm,R30
                 ; 0000 0080 			}
                 ; 0000 0081 
                 ; 0000 0082 			if (((bEmoState == 2) || bReturnSensor == 2) && RunStep <= RUN_PRESSURE_DELAY)	// Emo 입력시 Y축 올리는 단계로 점프하여 실린더 초기상태로 원복시킴
                 _0x2E:
000502 91a0 0a55 	LDS  R26,_bEmoState
000504 30a2      	CPI  R26,LOW(0x2)
000505 f411      	BRNE PC+3
000506 940c 050f 	JMP _0x32
000508 91a0 0a18 	LDS  R26,_bReturnSensor
00050a 30a2      	CPI  R26,LOW(0x2)
00050b f411      	BRNE PC+3
00050c 940c 050f 	JMP _0x32
00050e c007      	RJMP _0x34
                 _0x32:
00050f 91a0 0a2e 	LDS  R26,_RunStep
000511 30a7      	CPI  R26,LOW(0x7)
000512 f010      	BRLO PC+3
000513 940c 0516 	JMP _0x34
000515 c001      	RJMP _0x35
                 _0x34:
000516 c00c      	RJMP _0x31
                 _0x35:
                 ; 0000 0083 			{
                 ; 0000 0084 				RunStepDelay = 0;
000517 940e 1fe4 	CALL SUBOPT_0xC
000519 940e 1fe9 	CALL SUBOPT_0xD
                 ; 0000 0085 				RunStep = RUN_PRESSURE_DELAY;
00051b e0e6      	LDI  R30,LOW(6)
00051c 93e0 0a2e 	STS  _RunStep,R30
                 ; 0000 0086 				bRunAlarm |= 0x01;
00051e 91e0 0a3b 	LDS  R30,_bRunAlarm
000520 60e1      	ORI  R30,1
000521 93e0 0a3b 	STS  _bRunAlarm,R30
                 ; 0000 0087 			}
                 ; 0000 0088 			// **************************************************************************************************************************************************
                 ; 0000 0089 
                 ; 0000 008A 			if (RunStepDelay)
                 _0x31:
000523 940e 1ff2 	CALL SUBOPT_0xE
000525 940e 2873 	CALL __CPD10
000527 f411      	BRNE PC+3
000528 940c 054b 	JMP _0x36
                 ; 0000 008B 			{
                 ; 0000 008C 				RunStepDelay--;
00052a e2af      	LDI  R26,LOW(_RunStepDelay)
00052b e0ba      	LDI  R27,HIGH(_RunStepDelay)
00052c 940e 1ffb 	CALL SUBOPT_0xF
                 ; 0000 008D 				RunStepTime++;										// RunStepDelay 사용시 시간 카운터로 사용됨.
00052e e3a3      	LDI  R26,LOW(_RunStepTime)
00052f e0ba      	LDI  R27,HIGH(_RunStepTime)
000530 940e 26b0 	CALL __GETD1P_INC
                +
000532 5fef     +SUBI R30 , LOW ( - 1 )
000533 4fff     +SBCI R31 , HIGH ( - 1 )
000534 4f6f     +SBCI R22 , BYTE3 ( - 1 )
000535 4f7f     +SBCI R23 , BYTE4 ( - 1 )
                 	__SUBD1N -1
000536 940e 26b5 	CALL __PUTDP1_DEC
                 ; 0000 008E 				if ((RunStepDelay % 10) == 0) bVarDisplay = 1;		// 100ms에 한번씩 상태 LCD에 출력
000538 91a0 0a2f 	LDS  R26,_RunStepDelay
00053a 91b0 0a30 	LDS  R27,_RunStepDelay+1
00053c 9180 0a31 	LDS  R24,_RunStepDelay+2
00053e 9190 0a32 	LDS  R25,_RunStepDelay+3
000540 940e 2003 	CALL SUBOPT_0x10
000542 940e 2008 	CALL SUBOPT_0x11
000544 f011      	BREQ PC+3
000545 940c 054a 	JMP _0x37
000547 e0e1      	LDI  R30,LOW(1)
000548 93e0 0a2b 	STS  _bVarDisplay,R30
                 ; 0000 008F 			}else {													// RunStepDelay 0일때만 실행
                 _0x37:
00054a c14d      	RJMP _0x38
                 _0x36:
                 ; 0000 0090 				if (RunStep == RUN_PRESSURE_DELAY && bPressureFail) bRunAlarm |= 0x02;
00054b 91a0 0a2e 	LDS  R26,_RunStep
00054d 30a6      	CPI  R26,LOW(0x6)
00054e f011      	BREQ PC+3
00054f 940c 0558 	JMP _0x3A
000551 91e0 0a27 	LDS  R30,_bPressureFail
000553 30e0      	CPI  R30,0
000554 f411      	BRNE PC+3
000555 940c 0558 	JMP _0x3A
000557 c001      	RJMP _0x3B
                 _0x3A:
000558 c005      	RJMP _0x39
                 _0x3B:
000559 91e0 0a3b 	LDS  R30,_bRunAlarm
00055b 60e2      	ORI  R30,2
00055c 93e0 0a3b 	STS  _bRunAlarm,R30
                 ; 0000 0091 
                 ; 0000 0092 				RunStepTime = 0;
                 _0x39:
00055e 940e 200d 	CALL SUBOPT_0x12
                 ; 0000 0093 				switch(RunStep)
000560 91e0 0a2e 	LDS  R30,_RunStep
                 ; 0000 0094 				{
                 ; 0000 0095 				case RUN_STOP:
000562 30e0      	CPI  R30,0
000563 f011      	BREQ PC+3
000564 940c 056d 	JMP _0x3F
                 ; 0000 0096 					RunStep = RUN_START_DELAY;
000566 e0e1      	LDI  R30,LOW(1)
000567 940e 2018 	CALL SUBOPT_0x13
                 ; 0000 0097 					RunStepDelay = 10;	// 100ms delay (2014.10.15_이원욱D 초기 빨리 진입하게 변경요청)
                 ; 0000 0098 					bVarDisplay = 1;
000569 e0e1      	LDI  R30,LOW(1)
00056a 93e0 0a2b 	STS  _bVarDisplay,R30
                 ; 0000 0099 					break;
00056c c12b      	RJMP _0x3E
                 ; 0000 009A 
                 ; 0000 009B 				case RUN_START_DELAY:
                 _0x3F:
00056d 30e1      	CPI  R30,LOW(0x1)
00056e f011      	BREQ PC+3
00056f 940c 057a 	JMP _0x40
                 ; 0000 009C 					RunStep = RUN_JIG_IN;
000571 e0e2      	LDI  R30,LOW(2)
000572 93e0 0a2e 	STS  _RunStep,R30
                 ; 0000 009D 					CYL_X_IN;
000574 940e 201d 	CALL SUBOPT_0x14
                 ; 0000 009E 					bVarDisplay = 1;
000576 e0e1      	LDI  R30,LOW(1)
000577 93e0 0a2b 	STS  _bVarDisplay,R30
                 ; 0000 009F 					break;
000579 c11e      	RJMP _0x3E
                 ; 0000 00A0 
                 ; 0000 00A1 				case RUN_JIG_IN:
                 _0x40:
00057a 30e2      	CPI  R30,LOW(0x2)
00057b f011      	BREQ PC+3
00057c 940c 05a2 	JMP _0x41
                 ; 0000 00A2 					if (Sensor & CYL_X_IN_SENSOR)
00057e 91e0 0b92 	LDS  R30,_Sensor
000580 70e2      	ANDI R30,LOW(0x2)
000581 f411      	BRNE PC+3
000582 940c 05a1 	JMP _0x42
                 ; 0000 00A3 					{
                 ; 0000 00A4                         if (bAutoMode == 2)
000584 91a0 0a24 	LDS  R26,_bAutoMode
000586 30a2      	CPI  R26,LOW(0x2)
000587 f011      	BREQ PC+3
000588 940c 0592 	JMP _0x43
                 ; 0000 00A5                         {
                 ; 0000 00A6     						SetItv(PRESSURE_Y_DOWN);
00058a e6e4      	LDI  R30,LOW(100)
00058b e0f0      	LDI  R31,HIGH(100)
00058c 940e 2028 	CALL SUBOPT_0x15
                 ; 0000 00A7 						    RunStep = RUN_EXHAUST1;
00058e e0e3      	LDI  R30,LOW(3)
00058f 93e0 0a2e 	STS  _RunStep,R30
                 ; 0000 00A8                         }else {
000591 c008      	RJMP _0x44
                 _0x43:
                 ; 0000 00A9     						SetItv(Pressure);
000592 940e 202c 	CALL SUBOPT_0x16
                 ; 0000 00AA 						    RunStep = RUN_CYL_DOWN;
000594 e0e5      	LDI  R30,LOW(5)
000595 93e0 0a2e 	STS  _RunStep,R30
                 ; 0000 00AB                             bDownPressureEnd = 1;
000597 e0e1      	LDI  R30,LOW(1)
000598 93e0 0a56 	STS  _bDownPressureEnd,R30
                 ; 0000 00AC 
                 ; 0000 00AD                         }
                 _0x44:
                 ; 0000 00AE 						CYL_Y_DOWN;
00059a 940e 2031 	CALL SUBOPT_0x17
                 ; 0000 00AF 						bVarDisplay = 1;
00059c e0e1      	LDI  R30,LOW(1)
00059d 93e0 0a2b 	STS  _bVarDisplay,R30
                 ; 0000 00B0 
                 ; 0000 00B1 						RunStepDelay = 100;
00059f 940e 203c 	CALL SUBOPT_0x18
                 ; 0000 00B2 					}
                 ; 0000 00B3 					break;
                 _0x42:
0005a1 c0f6      	RJMP _0x3E
                 ; 0000 00B4 
                 ; 0000 00B5 				case RUN_EXHAUST1:
                 _0x41:
0005a2 30e3      	CPI  R30,LOW(0x3)
0005a3 f011      	BREQ PC+3
0005a4 940c 05b0 	JMP _0x45
                 ; 0000 00B6 					SetItv(PRESSURE_EXHAUST2);
0005a6 e1e4      	LDI  R30,LOW(20)
0005a7 e0f0      	LDI  R31,HIGH(20)
0005a8 940e 2028 	CALL SUBOPT_0x15
                 ; 0000 00B7 
                 ; 0000 00B8 					RunStep = RUN_CYL_DOWN;
0005aa e0e5      	LDI  R30,LOW(5)
0005ab 93e0 0a2e 	STS  _RunStep,R30
                 ; 0000 00B9 					RunStepDelay = 100;		// 1sec
0005ad 940e 203c 	CALL SUBOPT_0x18
                 ; 0000 00BA 					break;
0005af c0e8      	RJMP _0x3E
                 ; 0000 00BB 
                 ; 0000 00BC 				case RUN_CYL_DOWN:
                 _0x45:
0005b0 30e5      	CPI  R30,LOW(0x5)
0005b1 f011      	BREQ PC+3
0005b2 940c 05d0 	JMP _0x46
                 ; 0000 00BD 					if (Sensor & CYL_Y_DOWN_SENSOR)
0005b4 91e0 0b92 	LDS  R30,_Sensor
0005b6 70e8      	ANDI R30,LOW(0x8)
0005b7 f411      	BRNE PC+3
0005b8 940c 05cf 	JMP _0x47
                 ; 0000 00BE 					{
                 ; 0000 00BF 						//PressureTime = GetEeprom2(0);
                 ; 0000 00C0 						//Pressure = GetEeprom2(2);
                 ; 0000 00C1 
                 ; 0000 00C2 						if (bDownPressureEnd == 1)
0005ba 91a0 0a56 	LDS  R26,_bDownPressureEnd
0005bc 30a1      	CPI  R26,LOW(0x1)
0005bd f011      	BREQ PC+3
0005be 940c 05cc 	JMP _0x48
                 ; 0000 00C3 						{
                 ; 0000 00C4 							RunStep = RUN_PRESSURE_DELAY;
0005c0 e0e6      	LDI  R30,LOW(6)
0005c1 93e0 0a2e 	STS  _RunStep,R30
                 ; 0000 00C5 							RunStepDelay = PressureTime * 10;
0005c3 940e 2041 	CALL SUBOPT_0x19
0005c5 940e 261c 	CALL __MULD12U
0005c7 940e 1fe9 	CALL SUBOPT_0xD
                 ; 0000 00C6 							bPressureReward = 1;
0005c9 e0e1      	LDI  R30,LOW(1)
0005ca 93e0 0a57 	STS  _bPressureReward,R30
                 ; 0000 00C7 						}
                 ; 0000 00C8 						bVarDisplay = 1;
                 _0x48:
0005cc e0e1      	LDI  R30,LOW(1)
0005cd 93e0 0a2b 	STS  _bVarDisplay,R30
                 ; 0000 00C9 					}
                 ; 0000 00CA 					break;
                 _0x47:
0005cf c0c8      	RJMP _0x3E
                 ; 0000 00CB 
                 ; 0000 00CC 				case RUN_PRESSURE_DELAY:
                 _0x46:
0005d0 30e6      	CPI  R30,LOW(0x6)
0005d1 f011      	BREQ PC+3
0005d2 940c 0602 	JMP _0x49
                 ; 0000 00CD 					RunStep = RUN_CYL_UP;
0005d4 e0e7      	LDI  R30,LOW(7)
0005d5 93e0 0a2e 	STS  _RunStep,R30
                 ; 0000 00CE 					bDownPressureEnd = 0;
0005d7 e0e0      	LDI  R30,LOW(0)
0005d8 93e0 0a56 	STS  _bDownPressureEnd,R30
                 ; 0000 00CF 
                 ; 0000 00D0                     if (bRunAlarm == 0x01) RunStepDelay = 100; 	// 14.10.14
0005da 91a0 0a3b 	LDS  R26,_bRunAlarm
0005dc 30a1      	CPI  R26,LOW(0x1)
0005dd f011      	BREQ PC+3
0005de 940c 05e3 	JMP _0x4A
0005e0 940e 203c 	CALL SUBOPT_0x18
                 ; 0000 00D1 				    else RunStepDelay = 10;
0005e2 c004      	RJMP _0x4B
                 _0x4A:
0005e3 940e 2003 	CALL SUBOPT_0x10
0005e5 940e 1fe9 	CALL SUBOPT_0xD
                 ; 0000 00D2 
                 ; 0000 00D3 					SetItv(PRESSURE_NOMAL);
                 _0x4B:
0005e7 940e 1fde 	CALL SUBOPT_0xB
                 ; 0000 00D4 
                 ; 0000 00D5 					CYL_Y_UP;
0005e9 940e 204a 	CALL SUBOPT_0x1A
                 ; 0000 00D6 
                 ; 0000 00D7                     if (bPressureFail) SetBuzzer(1, 2);
0005eb 91e0 0a27 	LDS  R30,_bPressureFail
0005ed 30e0      	CPI  R30,0
0005ee f411      	BRNE PC+3
0005ef 940c 05f4 	JMP _0x4C
0005f1 940e 2055 	CALL SUBOPT_0x1B
                 ; 0000 00D8                     else SetBuzzer(0, 0);
0005f3 c004      	RJMP _0x4D
                 _0x4C:
0005f4 940e 205b 	CALL SUBOPT_0x1C
0005f6 940e 04ad 	CALL _SetBuzzer
                 ; 0000 00D9 
                 ; 0000 00DA                     RunStepDelay = 30;
                 _0x4D:
                +
0005f8 e1ee     +LDI R30 , LOW ( 0x1E )
0005f9 e0f0     +LDI R31 , HIGH ( 0x1E )
0005fa e060     +LDI R22 , BYTE3 ( 0x1E )
0005fb e070     +LDI R23 , BYTE4 ( 0x1E )
                 	__GETD1N 0x1E
0005fc 940e 1fe9 	CALL SUBOPT_0xD
                 ; 0000 00DB 					bVarDisplay = 1;
0005fe e0e1      	LDI  R30,LOW(1)
0005ff 93e0 0a2b 	STS  _bVarDisplay,R30
                 ; 0000 00DC 					break;
000601 c096      	RJMP _0x3E
                 ; 0000 00DD 
                 ; 0000 00DE 				case RUN_CYL_UP:
                 _0x49:
000602 30e7      	CPI  R30,LOW(0x7)
000603 f011      	BREQ PC+3
000604 940c 062d 	JMP _0x4E
                 ; 0000 00DF 					//if (Sensor & CYL_Y_UP_SENSOR)	// TactTime 축소로 센서 받기전 X축 Out적용으로 주석처리
                 ; 0000 00E0 					{
                 ; 0000 00E1 						if (bReturnSensor == 2 || (bEmoState == 2))
000606 91a0 0a18 	LDS  R26,_bReturnSensor
000608 30a2      	CPI  R26,LOW(0x2)
000609 f411      	BRNE PC+3
00060a 940c 0613 	JMP _0x50
00060c 91a0 0a55 	LDS  R26,_bEmoState
00060e 30a2      	CPI  R26,LOW(0x2)
00060f f411      	BRNE PC+3
000610 940c 0613 	JMP _0x50
000612 c006      	RJMP _0x4F
                 _0x50:
                 ; 0000 00E2 						{
                 ; 0000 00E3 							RunStep = RUN_JIG_OUT;
000613 e0e8      	LDI  R30,LOW(8)
000614 940e 2018 	CALL SUBOPT_0x13
                 ; 0000 00E4 							RunStepDelay = 10;
                 ; 0000 00E5 							CYL_X_OUT;
000616 940e 205f 	CALL SUBOPT_0x1D
                 ; 0000 00E6 							bVarDisplay = 1;
                 ; 0000 00E7 						}else {
000618 c013      	RJMP _0x52
                 _0x4F:
                 ; 0000 00E8 							if (bDoorSensorFail == 0 && bSafeSensorFail == 0)
000619 91a0 0a28 	LDS  R26,_bDoorSensorFail
00061b 30a0      	CPI  R26,LOW(0x0)
00061c f011      	BREQ PC+3
00061d 940c 0626 	JMP _0x54
00061f 91a0 0a29 	LDS  R26,_bSafeSensorFail
000621 30a0      	CPI  R26,LOW(0x0)
000622 f011      	BREQ PC+3
000623 940c 0626 	JMP _0x54
000625 c001      	RJMP _0x55
                 _0x54:
000626 c005      	RJMP _0x53
                 _0x55:
                 ; 0000 00E9 							{
                 ; 0000 00EA 								RunStep = RUN_JIG_OUT;
000627 e0e8      	LDI  R30,LOW(8)
000628 940e 2018 	CALL SUBOPT_0x13
                 ; 0000 00EB 								RunStepDelay = 10;
                 ; 0000 00EC 								CYL_X_OUT;
00062a 940e 205f 	CALL SUBOPT_0x1D
                 ; 0000 00ED 								bVarDisplay = 1;
                 ; 0000 00EE 							}
                 ; 0000 00EF 						}
                 _0x53:
                 _0x52:
                 ; 0000 00F0 					}
                 ; 0000 00F1 					break;
00062c c06b      	RJMP _0x3E
                 ; 0000 00F2 
                 ; 0000 00F3 				case RUN_JIG_OUT:
                 _0x4E:
00062d 30e8      	CPI  R30,LOW(0x8)
00062e f011      	BREQ PC+3
00062f 940c 063e 	JMP _0x56
                 ; 0000 00F4 					if (Sensor & CYL_X_OUT_SENSOR)
000631 91e0 0b92 	LDS  R30,_Sensor
000633 70e1      	ANDI R30,LOW(0x1)
000634 f411      	BRNE PC+3
000635 940c 063d 	JMP _0x57
                 ; 0000 00F5 					{
                 ; 0000 00F6 						RunStep = RUN_END;
000637 e0e9      	LDI  R30,LOW(9)
000638 940e 2018 	CALL SUBOPT_0x13
                 ; 0000 00F7 						RunStepDelay = 10;
                 ; 0000 00F8 						bVarDisplay = 1;
00063a e0e1      	LDI  R30,LOW(1)
00063b 93e0 0a2b 	STS  _bVarDisplay,R30
                 ; 0000 00F9 					}
                 ; 0000 00FA 					break;
                 _0x57:
00063d c05a      	RJMP _0x3E
                 ; 0000 00FB 
                 ; 0000 00FC 				case RUN_END:
                 _0x56:
00063e 30e9      	CPI  R30,LOW(0x9)
00063f f011      	BREQ PC+3
000640 940c 0698 	JMP _0x3E
                 ; 0000 00FD                     bPressureFail = 0;
000642 e0e0      	LDI  R30,LOW(0)
000643 93e0 0a27 	STS  _bPressureFail,R30
                 ; 0000 00FE                     bRunAlarm = 0;
000645 93e0 0a3b 	STS  _bRunAlarm,R30
                 ; 0000 00FF 					DownPressure = 0;
000647 940e 206d 	CALL SUBOPT_0x1E
                 ; 0000 0100 					if (bRunAlarm) SetBuzzer(1, 1);
000649 91e0 0a3b 	LDS  R30,_bRunAlarm
00064b 30e0      	CPI  R30,0
00064c f411      	BRNE PC+3
00064d 940c 0652 	JMP _0x59
00064f 940e 2074 	CALL SUBOPT_0x1F
                 ; 0000 0101 					else SetBuzzer(0, 1);
000651 c004      	RJMP _0x5A
                 _0x59:
000652 940e 2079 	CALL SUBOPT_0x20
000654 940e 04ad 	CALL _SetBuzzer
                 ; 0000 0102 
                 ; 0000 0103 					if (bReturnSensor || (bEmoState == 2))
                 _0x5A:
000656 91e0 0a18 	LDS  R30,_bReturnSensor
000658 30e0      	CPI  R30,0
000659 f011      	BREQ PC+3
00065a 940c 0663 	JMP _0x5C
00065c 91a0 0a55 	LDS  R26,_bEmoState
00065e 30a2      	CPI  R26,LOW(0x2)
00065f f411      	BRNE PC+3
000660 940c 0663 	JMP _0x5C
000662 c011      	RJMP _0x5B
                 _0x5C:
                 ; 0000 0104 					{
                 ; 0000 0105 						bReturnSensor = 0;
000663 e0e0      	LDI  R30,LOW(0)
000664 93e0 0a18 	STS  _bReturnSensor,R30
                 ; 0000 0106 						bEmoState = 0;
000666 93e0 0a55 	STS  _bEmoState,R30
                 ; 0000 0107 						//PressureTime = GetEeprom2(0);
                 ; 0000 0108 						//Pressure = GetEeprom2(2);
                 ; 0000 0109 
                 ; 0000 010A 						CalItvMin = GetEeprom2(10);
000668 940e 207e 	CALL SUBOPT_0x21
00066a 940e 2083 	CALL SUBOPT_0x22
00066c 940e 2088 	CALL SUBOPT_0x23
                 ; 0000 010B                         CalItvMax = GetEeprom4(12);
00066e 940e 2091 	CALL SUBOPT_0x24
000670 940e 2096 	CALL SUBOPT_0x25
                 ; 0000 010C 
                 ; 0000 010D 						SetItv(Pressure);
000672 940e 202c 	CALL SUBOPT_0x16
                 ; 0000 010E 						//GetItv();
                 ; 0000 010F 					}
                 ; 0000 0110 					//bReturnRun = 0;
                 ; 0000 0111 					if (bAgingEnd) bRun = 0;
                 _0x5B:
000674 91e0 0a23 	LDS  R30,_bAgingEnd
000676 30e0      	CPI  R30,0
000677 f411      	BRNE PC+3
000678 940c 067e 	JMP _0x5E
00067a e0e0      	LDI  R30,LOW(0)
00067b 93e0 0a2d 	STS  _bRun,R30
                 ; 0000 0112             	    else if (!bAgingEnd && bAgingMode) bRun = 1;		// Aging Mode시 반복되게 bRun 플래그 ON
00067d c015      	RJMP _0x5F
                 _0x5E:
00067e 91e0 0a23 	LDS  R30,_bAgingEnd
000680 30e0      	CPI  R30,0
000681 f011      	BREQ PC+3
000682 940c 068b 	JMP _0x61
000684 91e0 0a22 	LDS  R30,_bAgingMode
000686 30e0      	CPI  R30,0
000687 f411      	BRNE PC+3
000688 940c 068b 	JMP _0x61
00068a c001      	RJMP _0x62
                 _0x61:
00068b c004      	RJMP _0x60
                 _0x62:
00068c e0e1      	LDI  R30,LOW(1)
00068d 93e0 0a2d 	STS  _bRun,R30
                 ; 0000 0113 				    else bRun = 0;
00068f c003      	RJMP _0x63
                 _0x60:
000690 e0e0      	LDI  R30,LOW(0)
000691 93e0 0a2d 	STS  _bRun,R30
                 ; 0000 0114 
                 ; 0000 0115 					RunStep = RUN_STOP;
                 _0x63:
                 _0x5F:
000693 e0e0      	LDI  R30,LOW(0)
000694 93e0 0a2e 	STS  _RunStep,R30
                 ; 0000 0116 					bMenuDisplay = 1;
000696 940e 20a1 	CALL SUBOPT_0x26
                 ; 0000 0117 					bVarDisplay = 1;
                 ; 0000 0118 					break;
                 ; 0000 0119 				}
                 _0x3E:
                 ; 0000 011A 			}
                 _0x38:
                 ; 0000 011B 		}
                 _0x2C:
                 ; 0000 011C     }else {
000698 c08e      	RJMP _0x64
                 _0x28:
                 ; 0000 011D 		RunStep = RUN_STOP;
000699 e0e0      	LDI  R30,LOW(0)
00069a 93e0 0a2e 	STS  _RunStep,R30
                 ; 0000 011E 		RunStepDelay = 0;
00069c 940e 1fe4 	CALL SUBOPT_0xC
00069e 940e 1fe9 	CALL SUBOPT_0xD
                 ; 0000 011F         RunStepTime = 0;
0006a0 940e 200d 	CALL SUBOPT_0x12
                 ; 0000 0120 		bDownPressureEnd = 0;
0006a2 e0e0      	LDI  R30,LOW(0)
0006a3 93e0 0a56 	STS  _bDownPressureEnd,R30
                 ; 0000 0121 
                 ; 0000 0122 		if (bAutoMode)	// AutoMode & EdgeMode
0006a5 91e0 0a24 	LDS  R30,_bAutoMode
0006a7 30e0      	CPI  R30,0
0006a8 f411      	BRNE PC+3
0006a9 940c 06b5 	JMP _0x65
                 ; 0000 0123         {
                 ; 0000 0124             bCylXIn = 0;
0006ab e0e0      	LDI  R30,LOW(0)
0006ac 93e0 0a25 	STS  _bCylXIn,R30
                 ; 0000 0125             bCylYDown = 0;
0006ae 93e0 0a26 	STS  _bCylYDown,R30
                 ; 0000 0126         	CYL_X_OUT;
0006b0 940e 20a7 	CALL SUBOPT_0x27
                 ; 0000 0127         	CYL_Y_UP;
0006b2 940e 204a 	CALL SUBOPT_0x1A
                 ; 0000 0128         } else{
0006b4 c072      	RJMP _0x66
                 _0x65:
                 ; 0000 0129 			if (bCylXIn) 	// X IN
0006b5 91e0 0a25 	LDS  R30,_bCylXIn
0006b7 30e0      	CPI  R30,0
0006b8 f411      	BRNE PC+3
0006b9 940c 06d5 	JMP _0x67
                 ; 0000 012A 			{
                 ; 0000 012B 				if ((Sensor & CYL_X_IN_SENSOR) != CYL_X_IN_SENSOR)
0006bb 91e0 0b92 	LDS  R30,_Sensor
0006bd 70e2      	ANDI R30,LOW(0x2)
0006be 30e2      	CPI  R30,LOW(0x2)
0006bf f411      	BRNE PC+3
0006c0 940c 06d4 	JMP _0x68
                 ; 0000 012C 				{
                 ; 0000 012D 					TactTimeCheckOut = 0;
0006c2 e0e0      	LDI  R30,LOW(0)
0006c3 e0f0      	LDI  R31,HIGH(0)
0006c4 93e0 0b97 	STS  _TactTimeCheckOut_S0000002,R30
0006c6 93f0 0b98 	STS  _TactTimeCheckOut_S0000002+1,R31
                 ; 0000 012E 					mRunStepTime = TactTimeCheckIn++;
0006c8 e9a5      	LDI  R26,LOW(_TactTimeCheckIn_S0000002)
0006c9 e0bb      	LDI  R27,HIGH(_TactTimeCheckIn_S0000002)
0006ca 940e 1f8c 	CALL SUBOPT_0x1
0006cc 940e 20b2 	CALL SUBOPT_0x28
                 ; 0000 012F 					if ((mRunStepTime % 10) == 0) bVarDisplay = 1;
0006ce f011      	BREQ PC+3
0006cf 940c 06d4 	JMP _0x69
0006d1 e0e1      	LDI  R30,LOW(1)
0006d2 93e0 0a2b 	STS  _bVarDisplay,R30
                 ; 0000 0130 				}
                 _0x69:
                 ; 0000 0131 			} else {	// X OUT
                 _0x68:
0006d4 c019      	RJMP _0x6A
                 _0x67:
                 ; 0000 0132 				if ((Sensor & CYL_X_OUT_SENSOR) != CYL_X_OUT_SENSOR)
0006d5 91e0 0b92 	LDS  R30,_Sensor
0006d7 70e1      	ANDI R30,LOW(0x1)
0006d8 30e1      	CPI  R30,LOW(0x1)
0006d9 f411      	BRNE PC+3
0006da 940c 06ee 	JMP _0x6B
                 ; 0000 0133 				{
                 ; 0000 0134 					TactTimeCheckIn = 0;
0006dc e0e0      	LDI  R30,LOW(0)
0006dd e0f0      	LDI  R31,HIGH(0)
0006de 93e0 0b95 	STS  _TactTimeCheckIn_S0000002,R30
0006e0 93f0 0b96 	STS  _TactTimeCheckIn_S0000002+1,R31
                 ; 0000 0135 					mRunStepTime = TactTimeCheckOut++;
0006e2 e9a7      	LDI  R26,LOW(_TactTimeCheckOut_S0000002)
0006e3 e0bb      	LDI  R27,HIGH(_TactTimeCheckOut_S0000002)
0006e4 940e 1f8c 	CALL SUBOPT_0x1
0006e6 940e 20b2 	CALL SUBOPT_0x28
                 ; 0000 0136 					if ((mRunStepTime % 10) == 0) bVarDisplay = 1;
0006e8 f011      	BREQ PC+3
0006e9 940c 06ee 	JMP _0x6C
0006eb e0e1      	LDI  R30,LOW(1)
0006ec 93e0 0a2b 	STS  _bVarDisplay,R30
                 ; 0000 0137 				}
                 _0x6C:
                 ; 0000 0138 			}
                 _0x6B:
                 _0x6A:
                 ; 0000 0139 			if (bCylYDown){	// Y Down
0006ee 91e0 0a26 	LDS  R30,_bCylYDown
0006f0 30e0      	CPI  R30,0
0006f1 f411      	BRNE PC+3
0006f2 940c 070e 	JMP _0x6D
                 ; 0000 013A  				if ((Sensor & CYL_Y_DOWN_SENSOR) != CYL_Y_DOWN_SENSOR)
0006f4 91e0 0b92 	LDS  R30,_Sensor
0006f6 70e8      	ANDI R30,LOW(0x8)
0006f7 30e8      	CPI  R30,LOW(0x8)
0006f8 f411      	BRNE PC+3
0006f9 940c 070d 	JMP _0x6E
                 ; 0000 013B 				{
                 ; 0000 013C 					TactTimeCheckUp = 0;
0006fb e0e0      	LDI  R30,LOW(0)
0006fc e0f0      	LDI  R31,HIGH(0)
0006fd 93e0 0b9b 	STS  _TactTimeCheckUp_S0000002,R30
0006ff 93f0 0b9c 	STS  _TactTimeCheckUp_S0000002+1,R31
                 ; 0000 013D 					mRunStepTime = TactTimeCheckDown++;
000701 e9a9      	LDI  R26,LOW(_TactTimeCheckDown_S0000002)
000702 e0bb      	LDI  R27,HIGH(_TactTimeCheckDown_S0000002)
000703 940e 1f8c 	CALL SUBOPT_0x1
000705 940e 20b2 	CALL SUBOPT_0x28
                 ; 0000 013E 					if ((mRunStepTime % 10) == 0) bVarDisplay = 1;
000707 f011      	BREQ PC+3
000708 940c 070d 	JMP _0x6F
00070a e0e1      	LDI  R30,LOW(1)
00070b 93e0 0a2b 	STS  _bVarDisplay,R30
                 ; 0000 013F 				}
                 _0x6F:
                 ; 0000 0140 			} else{	// Y Up
                 _0x6E:
00070d c019      	RJMP _0x70
                 _0x6D:
                 ; 0000 0141  				if ((Sensor & CYL_Y_UP_SENSOR) != CYL_Y_UP_SENSOR)
00070e 91e0 0b92 	LDS  R30,_Sensor
000710 70e4      	ANDI R30,LOW(0x4)
000711 30e4      	CPI  R30,LOW(0x4)
000712 f411      	BRNE PC+3
000713 940c 0727 	JMP _0x71
                 ; 0000 0142 				{
                 ; 0000 0143 					TactTimeCheckDown = 0;
000715 e0e0      	LDI  R30,LOW(0)
000716 e0f0      	LDI  R31,HIGH(0)
000717 93e0 0b99 	STS  _TactTimeCheckDown_S0000002,R30
000719 93f0 0b9a 	STS  _TactTimeCheckDown_S0000002+1,R31
                 ; 0000 0144 					mRunStepTime = TactTimeCheckUp++;
00071b e9ab      	LDI  R26,LOW(_TactTimeCheckUp_S0000002)
00071c e0bb      	LDI  R27,HIGH(_TactTimeCheckUp_S0000002)
00071d 940e 1f8c 	CALL SUBOPT_0x1
00071f 940e 20b2 	CALL SUBOPT_0x28
                 ; 0000 0145 					if ((mRunStepTime % 10) == 0) bVarDisplay = 1;
000721 f011      	BREQ PC+3
000722 940c 0727 	JMP _0x72
000724 e0e1      	LDI  R30,LOW(1)
000725 93e0 0a2b 	STS  _bVarDisplay,R30
                 ; 0000 0146 				}
                 _0x72:
                 ; 0000 0147 			}
                 _0x71:
                 _0x70:
                 ; 0000 0148 		}
                 _0x66:
                 ; 0000 0149     }
                 _0x64:
                 ; 0000 014A }
000727 9508      	RET
                 ;
                 ;void DisplaySubroutine(void)	// 10ms
                 ; 0000 014D {
                 _DisplaySubroutine:
                 ; 0000 014E 	// LCD
                 ; 0000 014F 	if (bMenuDisplay)
000728 91e0 0a2a 	LDS  R30,_bMenuDisplay
00072a 30e0      	CPI  R30,0
00072b f411      	BRNE PC+3
00072c 940c 08d9 	JMP _0x73
                 ; 0000 0150     {
                 ; 0000 0151 		LcdClear();
00072e 940e 1c19 	CALL _LcdClear
                 ; 0000 0152        	switch(Mode1Step)
000730 91e0 0a3c 	LDS  R30,_Mode1Step
                 ; 0000 0153 		{
                 ; 0000 0154         case MODE1_NOMAL:	// NORMAL
000732 30e0      	CPI  R30,0
000733 f011      	BREQ PC+3
000734 940c 07e1 	JMP _0x77
                 ; 0000 0155           	if (TestMode)
000736 91e0 0a21 	LDS  R30,_TestMode
000738 30e0      	CPI  R30,0
000739 f411      	BRNE PC+3
00073a 940c 073d 	JMP _0x78
                 ; 0000 0156             {
                 ; 0000 0157 
                 ; 0000 0158         	}else if (HiddenStep){
00073c c0a1      	RJMP _0x79
                 _0x78:
00073d 91e0 0a3e 	LDS  R30,_HiddenStep
00073f 30e0      	CPI  R30,0
000740 f411      	BRNE PC+3
000741 940c 0744 	JMP _0x7A
                 ; 0000 0159 
                 ; 0000 015A 			}else {
000743 c09a      	RJMP _0x7B
                 _0x7A:
                 ; 0000 015B 		    	//Lcdprintf(0, 0, "WINDOW PRESS BASE:");
                 ; 0000 015C 		    	//Lcdprintf(0, 0, "WINDOW PRESS ");
                 ; 0000 015D 				switch (sMode1Step)
000744 91e0 0a3d 	LDS  R30,_sMode1Step
                 ; 0000 015E 				{
                 ; 0000 015F 				case MODE1_OCTA:
000746 30e1      	CPI  R30,LOW(0x1)
000747 f011      	BREQ PC+3
000748 940c 0751 	JMP _0x7F
                 ; 0000 0160 					//Lcdprintf(13, 0, "WINDOW PRESS OCTA:");
                 ; 0000 0161 					Lcdprintf(13, 0, "MODE : OCTA      V");
00074a 940e 20c7 	CALL SUBOPT_0x29
                +
00074c e0e0     +LDI R30 , LOW ( 2 * _0x0 + 256 )
00074d e0f2     +LDI R31 , HIGH ( 2 * _0x0 + 256 )
                 	__POINTW1FN _0x0,256
00074e 940e 20cc 	CALL SUBOPT_0x2A
                 ; 0000 0162 					break;
000750 c020      	RJMP _0x7E
                 ; 0000 0163 				case MODE1_TAPE:
                 _0x7F:
000751 30e2      	CPI  R30,LOW(0x2)
000752 f011      	BREQ PC+3
000753 940c 075c 	JMP _0x80
                 ; 0000 0164 					//Lcdprintf(13, 0, "WINDOW PRESS TAPE:");
                 ; 0000 0165 					Lcdprintf(13, 0, "MODE : TAPE      V");
000755 940e 20c7 	CALL SUBOPT_0x29
                +
000757 e1e3     +LDI R30 , LOW ( 2 * _0x0 + 275 )
000758 e0f2     +LDI R31 , HIGH ( 2 * _0x0 + 275 )
                 	__POINTW1FN _0x0,275
000759 940e 20cc 	CALL SUBOPT_0x2A
                 ; 0000 0166 					break;
00075b c015      	RJMP _0x7E
                 ; 0000 0167 				case MODE1_BATTERY:
                 _0x80:
00075c 30e3      	CPI  R30,LOW(0x3)
00075d f011      	BREQ PC+3
00075e 940c 0767 	JMP _0x81
                 ; 0000 0168 					//Lcdprintf(13, 0, "WINDOW PRESS BATT:");
                 ; 0000 0169 					Lcdprintf(13, 0, "MODE : BATT      V");
000760 940e 20c7 	CALL SUBOPT_0x29
                +
000762 e2e6     +LDI R30 , LOW ( 2 * _0x0 + 294 )
000763 e0f2     +LDI R31 , HIGH ( 2 * _0x0 + 294 )
                 	__POINTW1FN _0x0,294
000764 940e 20cc 	CALL SUBOPT_0x2A
                 ; 0000 016A 					break;
000766 c00a      	RJMP _0x7E
                 ; 0000 016B 				case MODE1_ETC:
                 _0x81:
000767 30e4      	CPI  R30,LOW(0x4)
000768 f011      	BREQ PC+3
000769 940c 0771 	JMP _0x7E
                 ; 0000 016C 					//Lcdprintf(13, 0, "WINDOW PRESS  ETC:");
                 ; 0000 016D 					Lcdprintf(13, 0, "MODE : ETC       V");
00076b 940e 20c7 	CALL SUBOPT_0x29
                +
00076d e3e9     +LDI R30 , LOW ( 2 * _0x0 + 313 )
00076e e0f2     +LDI R31 , HIGH ( 2 * _0x0 + 313 )
                 	__POINTW1FN _0x0,313
00076f 940e 20cc 	CALL SUBOPT_0x2A
                 ; 0000 016E 					break;
                 ; 0000 016F 				}
                 _0x7E:
                 ; 0000 0170                 Lcdprintf(18, 0, VERSION);
000771 e1e2      	LDI  R30,LOW(18)
000772 93ea      	ST   -Y,R30
000773 e0e0      	LDI  R30,LOW(0)
000774 93ea      	ST   -Y,R30
                +
000775 e4ec     +LDI R30 , LOW ( 2 * _0x0 + 332 )
000776 e0f2     +LDI R31 , HIGH ( 2 * _0x0 + 332 )
                 	__POINTW1FN _0x0,332
000777 940e 20cc 	CALL SUBOPT_0x2A
                 ; 0000 0171                 Lcdprintf(0, 2, "Status:");
000779 940e 20d3 	CALL SUBOPT_0x2B
                +
00077b e4ef     +LDI R30 , LOW ( 2 * _0x0 + 335 )
00077c e0f2     +LDI R31 , HIGH ( 2 * _0x0 + 335 )
                 	__POINTW1FN _0x0,335
00077d 940e 20cc 	CALL SUBOPT_0x2A
                 ; 0000 0172                 if (bRun) Lcdprintf(7, 2, "RUN  TIM:");
00077f 91e0 0a2d 	LDS  R30,_bRun
000781 30e0      	CPI  R30,0
000782 f411      	BRNE PC+3
000783 940c 078e 	JMP _0x83
000785 e0e7      	LDI  R30,LOW(7)
000786 93ea      	ST   -Y,R30
000787 e0e2      	LDI  R30,LOW(2)
000788 93ea      	ST   -Y,R30
                +
000789 e5e7     +LDI R30 , LOW ( 2 * _0x0 + 343 )
00078a e0f2     +LDI R31 , HIGH ( 2 * _0x0 + 343 )
                 	__POINTW1FN _0x0,343
00078b 940e 20cc 	CALL SUBOPT_0x2A
                 ; 0000 0173                 else Lcdprintf(7, 2, "STOP TIM:");
00078d c008      	RJMP _0x84
                 _0x83:
00078e e0e7      	LDI  R30,LOW(7)
00078f 93ea      	ST   -Y,R30
000790 e0e2      	LDI  R30,LOW(2)
000791 93ea      	ST   -Y,R30
                +
000792 e6e1     +LDI R30 , LOW ( 2 * _0x0 + 353 )
000793 e0f2     +LDI R31 , HIGH ( 2 * _0x0 + 353 )
                 	__POINTW1FN _0x0,353
000794 940e 20cc 	CALL SUBOPT_0x2A
                 ; 0000 0174 
                 ; 0000 0175             	if (bAutoMode == 1)							// AutoMode
                 _0x84:
000796 91a0 0a24 	LDS  R26,_bAutoMode
000798 30a1      	CPI  R26,LOW(0x1)
000799 f011      	BREQ PC+3
00079a 940c 07a3 	JMP _0x85
                 ; 0000 0176                 {
                 ; 0000 0177 					Lcdprintf(0, 1, "AUTO:");
00079c 940e 2079 	CALL SUBOPT_0x20
                +
00079e e6eb     +LDI R30 , LOW ( 2 * _0x0 + 363 )
00079f e0f2     +LDI R31 , HIGH ( 2 * _0x0 + 363 )
                 	__POINTW1FN _0x0,363
0007a0 940e 20cc 	CALL SUBOPT_0x2A
                 ; 0000 0178 				}else if (bAutoMode == 2){					// EdgeMode
0007a2 c013      	RJMP _0x86
                 _0x85:
0007a3 91a0 0a24 	LDS  R26,_bAutoMode
0007a5 30a2      	CPI  R26,LOW(0x2)
0007a6 f011      	BREQ PC+3
0007a7 940c 07b0 	JMP _0x87
                 ; 0000 0179 					Lcdprintf(0, 1, "EDGE:");
0007a9 940e 2079 	CALL SUBOPT_0x20
                +
0007ab e7e1     +LDI R30 , LOW ( 2 * _0x0 + 369 )
0007ac e0f2     +LDI R31 , HIGH ( 2 * _0x0 + 369 )
                 	__POINTW1FN _0x0,369
0007ad 940e 20cc 	CALL SUBOPT_0x2A
                 ; 0000 017A                 }else {
0007af c006      	RJMP _0x88
                 _0x87:
                 ; 0000 017B 					Lcdprintf(0, 1, "MAN :");				// ManualMode
0007b0 940e 2079 	CALL SUBOPT_0x20
                +
0007b2 e7e7     +LDI R30 , LOW ( 2 * _0x0 + 375 )
0007b3 e0f2     +LDI R31 , HIGH ( 2 * _0x0 + 375 )
                 	__POINTW1FN _0x0,375
0007b4 940e 20cc 	CALL SUBOPT_0x2A
                 ; 0000 017C                 }
                 _0x88:
                 _0x86:
                 ; 0000 017D 				if (bAgingMode) Lcdprintf(0, 1, "AGING:");	// AgingMode
0007b6 91e0 0a22 	LDS  R30,_bAgingMode
0007b8 30e0      	CPI  R30,0
0007b9 f411      	BRNE PC+3
0007ba 940c 07c2 	JMP _0x89
0007bc 940e 2079 	CALL SUBOPT_0x20
                +
0007be e7ed     +LDI R30 , LOW ( 2 * _0x0 + 381 )
0007bf e0f2     +LDI R31 , HIGH ( 2 * _0x0 + 381 )
                 	__POINTW1FN _0x0,381
0007c0 940e 20cc 	CALL SUBOPT_0x2A
                 ; 0000 017E 
                 ; 0000 017F                 Lcdprintf(5, 1, "%2d.%dsec %d.%02dkgf", PressureTime / 10, PressureTime % 10, Pressure / 100, Pressure % 100);
                 _0x89:
0007c2 e0e5      	LDI  R30,LOW(5)
0007c3 93ea      	ST   -Y,R30
0007c4 e0e1      	LDI  R30,LOW(1)
0007c5 93ea      	ST   -Y,R30
                +
0007c6 e8e4     +LDI R30 , LOW ( 2 * _0x0 + 388 )
0007c7 e0f2     +LDI R31 , HIGH ( 2 * _0x0 + 388 )
                 	__POINTW1FN _0x0,388
0007c8 93fa      	ST   -Y,R31
0007c9 93ea      	ST   -Y,R30
0007ca 940e 2041 	CALL SUBOPT_0x19
0007cc 940e 20d8 	CALL SUBOPT_0x2C
0007ce 940e 2041 	CALL SUBOPT_0x19
0007d0 940e 20dd 	CALL SUBOPT_0x2D
0007d2 940e 20e2 	CALL SUBOPT_0x2E
0007d4 940e 20d8 	CALL SUBOPT_0x2C
0007d6 940e 20e2 	CALL SUBOPT_0x2E
0007d8 940e 20dd 	CALL SUBOPT_0x2D
0007da e180      	LDI  R24,16
0007db 940e 1c04 	CALL _Lcdprintf
0007dd 9664      	ADIW R28,20
                 ; 0000 0180             }
                 _0x7B:
                 _0x79:
                 ; 0000 0181             LcdCursorOff();
0007de 940e 20ef 	CALL SUBOPT_0x2F
                 ; 0000 0182             break;
0007e0 c0b7      	RJMP _0x76
                 ; 0000 0183 
                 ; 0000 0184         case MODE2_PRESSURE_SET:	// 압력
                 _0x77:
0007e1 30e5      	CPI  R30,LOW(0x5)
0007e2 f011      	BREQ PC+3
0007e3 940c 07fa 	JMP _0x8A
                 ; 0000 0185 			Lcdprintf(0, 0, "       SETUP");
0007e5 940e 205b 	CALL SUBOPT_0x1C
                +
0007e7 e9e9     +LDI R30 , LOW ( 2 * _0x0 + 409 )
0007e8 e0f2     +LDI R31 , HIGH ( 2 * _0x0 + 409 )
                 	__POINTW1FN _0x0,409
0007e9 940e 20cc 	CALL SUBOPT_0x2A
                 ; 0000 0186     		Lcdprintf(0, 1, " PRESSURE :      kgf");
0007eb 940e 2079 	CALL SUBOPT_0x20
0007ed 940e 20f3 	CALL SUBOPT_0x30
                 ; 0000 0187             Lcdprintf(0, 2, " LIMIT (%d ~ %d)", PRESSURE_MIN, PRESSURE_MAX_);
0007ef 940e 20d3 	CALL SUBOPT_0x2B
0007f1 940e 20f6 	CALL SUBOPT_0x31
                +
0007f3 e5e8     +LDI R30 , LOW ( 0x258 )
0007f4 e0f2     +LDI R31 , HIGH ( 0x258 )
0007f5 e060     +LDI R22 , BYTE3 ( 0x258 )
0007f6 e070     +LDI R23 , BYTE4 ( 0x258 )
                 	__GETD1N 0x258
0007f7 940e 20ff 	CALL SUBOPT_0x32
                 ; 0000 0188             LcdCursorOn();
                 ; 0000 0189             break;
0007f9 c09e      	RJMP _0x76
                 ; 0000 018A 
                 ; 0000 018B         case MODE2_PRESSURE_DELAY_SET:	// TIME
                 _0x8A:
0007fa 30e6      	CPI  R30,LOW(0x6)
0007fb f011      	BREQ PC+3
0007fc 940c 0813 	JMP _0x8B
                 ; 0000 018C 			Lcdprintf(0, 0, "       SETUP");
0007fe 940e 205b 	CALL SUBOPT_0x1C
                +
000800 e9e9     +LDI R30 , LOW ( 2 * _0x0 + 409 )
000801 e0f2     +LDI R31 , HIGH ( 2 * _0x0 + 409 )
                 	__POINTW1FN _0x0,409
000802 940e 20cc 	CALL SUBOPT_0x2A
                 ; 0000 018D     		Lcdprintf(0, 1, " TIME     :      sec");
000804 940e 2079 	CALL SUBOPT_0x20
000806 940e 2109 	CALL SUBOPT_0x33
                 ; 0000 018E             Lcdprintf(0, 2, " LIMIT (%d ~ %d)", PRESSURE_TIME_MIN, PRESSURE_TIME_MAX);
000808 940e 20d3 	CALL SUBOPT_0x2B
00080a 940e 20f6 	CALL SUBOPT_0x31
                +
00080c ece8     +LDI R30 , LOW ( 0xC8 )
00080d e0f0     +LDI R31 , HIGH ( 0xC8 )
00080e e060     +LDI R22 , BYTE3 ( 0xC8 )
00080f e070     +LDI R23 , BYTE4 ( 0xC8 )
                 	__GETD1N 0xC8
000810 940e 20ff 	CALL SUBOPT_0x32
                 ; 0000 018F             LcdCursorOn();
                 ; 0000 0190             break;
000812 c085      	RJMP _0x76
                 ; 0000 0191 
                 ; 0000 0192 		case MODE1_OCTA:
                 _0x8B:
000813 30e1      	CPI  R30,LOW(0x1)
000814 f011      	BREQ PC+3
000815 940c 082a 	JMP _0x8C
                 ; 0000 0193 			Lcdprintf(0, 0, "       OCTA");
000817 940e 205b 	CALL SUBOPT_0x1C
                +
000819 eee1     +LDI R30 , LOW ( 2 * _0x0 + 481 )
00081a e0f2     +LDI R31 , HIGH ( 2 * _0x0 + 481 )
                 	__POINTW1FN _0x0,481
00081b 940e 20cc 	CALL SUBOPT_0x2A
                 ; 0000 0194     		Lcdprintf(0, 1, " PRESSURE :      kgf");
00081d 940e 2079 	CALL SUBOPT_0x20
00081f 940e 20f3 	CALL SUBOPT_0x30
                 ; 0000 0195             Lcdprintf(0, 2, " TIME     :      sec");
000821 940e 20d3 	CALL SUBOPT_0x2B
000823 940e 2109 	CALL SUBOPT_0x33
                 ; 0000 0196 			Lcdprintf(12, 1, "%d.%02d", OCTA_PRESSURE / 100, OCTA_PRESSURE % 100);
000825 940e 210c 	CALL SUBOPT_0x34
000827 940e 2115 	CALL SUBOPT_0x35
                 ; 0000 0197 			Lcdprintf(12, 2, "%2d.%d", OCTA_PRESSURE_TIME / 10, OCTA_PRESSURE_TIME % 10);
                 ; 0000 0198 //            LcdCursorOn();
                 ; 0000 0199 			break;
000829 c06e      	RJMP _0x76
                 ; 0000 019A 
                 ; 0000 019B 		case MODE1_TAPE:
                 _0x8C:
00082a 30e2      	CPI  R30,LOW(0x2)
00082b f011      	BREQ PC+3
00082c 940c 0857 	JMP _0x8D
                 ; 0000 019C 			Lcdprintf(0, 0, "       TAPE");
00082e 940e 205b 	CALL SUBOPT_0x1C
                +
000830 efec     +LDI R30 , LOW ( 2 * _0x0 + 508 )
000831 e0f2     +LDI R31 , HIGH ( 2 * _0x0 + 508 )
                 	__POINTW1FN _0x0,508
000832 940e 20cc 	CALL SUBOPT_0x2A
                 ; 0000 019D     		Lcdprintf(0, 1, " PRESSURE :      kgf");
000834 940e 2079 	CALL SUBOPT_0x20
000836 940e 20f3 	CALL SUBOPT_0x30
                 ; 0000 019E             Lcdprintf(0, 2, " TIME     :      sec");
000838 940e 20d3 	CALL SUBOPT_0x2B
00083a 940e 2109 	CALL SUBOPT_0x33
                 ; 0000 019F 			Lcdprintf(12, 1, "%d.%02d", TYPE_PRESSURE / 100, TYPE_PRESSURE % 100);
00083c 940e 210c 	CALL SUBOPT_0x34
                +
00083e e0e3     +LDI R30 , LOW ( 0x3 )
00083f e0f0     +LDI R31 , HIGH ( 0x3 )
000840 e060     +LDI R22 , BYTE3 ( 0x3 )
000841 e070     +LDI R23 , BYTE4 ( 0x3 )
                 	__GETD1N 0x3
000842 940e 26ba 	CALL __PUTPARD1
000844 940e 1fe4 	CALL SUBOPT_0xC
000846 940e 213e 	CALL SUBOPT_0x36
                 ; 0000 01A0 			Lcdprintf(12, 2, "%2d.%d", TYPE_PRESSURE_TIME / 10, TYPE_PRESSURE_TIME % 10);
000848 940e 2145 	CALL SUBOPT_0x37
                +
00084a e0e4     +LDI R30 , LOW ( 0x4 )
00084b e0f0     +LDI R31 , HIGH ( 0x4 )
00084c e060     +LDI R22 , BYTE3 ( 0x4 )
00084d e070     +LDI R23 , BYTE4 ( 0x4 )
                 	__GETD1N 0x4
00084e 940e 26ba 	CALL __PUTPARD1
                +
000850 e0e6     +LDI R30 , LOW ( 0x6 )
000851 e0f0     +LDI R31 , HIGH ( 0x6 )
000852 e060     +LDI R22 , BYTE3 ( 0x6 )
000853 e070     +LDI R23 , BYTE4 ( 0x6 )
                 	__GETD1N 0x6
000854 940e 213e 	CALL SUBOPT_0x36
                 ; 0000 01A1 //            LcdCursorOn();
                 ; 0000 01A2 			break;
000856 c041      	RJMP _0x76
                 ; 0000 01A3 
                 ; 0000 01A4 		case MODE1_BATTERY:
                 _0x8D:
000857 30e3      	CPI  R30,LOW(0x3)
000858 f011      	BREQ PC+3
000859 940c 086e 	JMP _0x8E
                 ; 0000 01A5 			Lcdprintf(0, 0, "       BATT");
00085b 940e 205b 	CALL SUBOPT_0x1C
                +
00085d e0e8     +LDI R30 , LOW ( 2 * _0x0 + 520 )
00085e e0f3     +LDI R31 , HIGH ( 2 * _0x0 + 520 )
                 	__POINTW1FN _0x0,520
00085f 940e 20cc 	CALL SUBOPT_0x2A
                 ; 0000 01A6     		Lcdprintf(0, 1, " PRESSURE :      kgf");
000861 940e 2079 	CALL SUBOPT_0x20
000863 940e 20f3 	CALL SUBOPT_0x30
                 ; 0000 01A7             Lcdprintf(0, 2, " TIME     :      sec");
000865 940e 20d3 	CALL SUBOPT_0x2B
000867 940e 2109 	CALL SUBOPT_0x33
                 ; 0000 01A8 			Lcdprintf(12, 1, "%d.%02d", BATTERY_PRESSURE / 100, BATTERY_PRESSURE % 100);
000869 940e 210c 	CALL SUBOPT_0x34
00086b 940e 2115 	CALL SUBOPT_0x35
                 ; 0000 01A9 			Lcdprintf(12, 2, "%2d.%d", BATTERY_PRESSURE_TIME / 10, BATTERY_PRESSURE_TIME % 10);
                 ; 0000 01AA //            LcdCursorOn();
                 ; 0000 01AB             break;
00086d c02a      	RJMP _0x76
                 ; 0000 01AC 
                 ; 0000 01AD 		case MODE1_ETC:
                 _0x8E:
00086e 30e4      	CPI  R30,LOW(0x4)
00086f f011      	BREQ PC+3
000870 940c 0898 	JMP _0x76
                 ; 0000 01AE 			Lcdprintf(0, 0, "       ETC");
000872 940e 205b 	CALL SUBOPT_0x1C
                +
000874 e1e4     +LDI R30 , LOW ( 2 * _0x0 + 532 )
000875 e0f3     +LDI R31 , HIGH ( 2 * _0x0 + 532 )
                 	__POINTW1FN _0x0,532
000876 940e 20cc 	CALL SUBOPT_0x2A
                 ; 0000 01AF     		Lcdprintf(0, 1, " PRESSURE :      kgf");
000878 940e 2079 	CALL SUBOPT_0x20
00087a 940e 20f3 	CALL SUBOPT_0x30
                 ; 0000 01B0             Lcdprintf(0, 2, " TIME     :      sec");
00087c 940e 20d3 	CALL SUBOPT_0x2B
00087e 940e 2109 	CALL SUBOPT_0x33
                 ; 0000 01B1 			Lcdprintf(12, 1, "%d.%02d", Pressure / 100, Pressure % 100);
000880 940e 210c 	CALL SUBOPT_0x34
000882 940e 20e2 	CALL SUBOPT_0x2E
000884 940e 20d8 	CALL SUBOPT_0x2C
000886 940e 20e2 	CALL SUBOPT_0x2E
000888 940e 20dd 	CALL SUBOPT_0x2D
00088a 940e 214e 	CALL SUBOPT_0x38
                 ; 0000 01B2 			Lcdprintf(12, 2, "%2d.%d", PressureTime / 10, PressureTime % 10);
00088c 940e 2145 	CALL SUBOPT_0x37
00088e 940e 2041 	CALL SUBOPT_0x19
000890 940e 20d8 	CALL SUBOPT_0x2C
000892 940e 2041 	CALL SUBOPT_0x19
000894 940e 20dd 	CALL SUBOPT_0x2D
000896 940e 214e 	CALL SUBOPT_0x38
                 ; 0000 01B3 //            LcdCursorOn();
                 ; 0000 01B4             break;
                 ; 0000 01B5         }
                 _0x76:
                 ; 0000 01B6 
                 ; 0000 01B7 		switch(HiddenStep)
000898 91e0 0a3e 	LDS  R30,_HiddenStep
                 ; 0000 01B8 		{
                 ; 0000 01B9 		case HIDDEN1_STEP:
00089a 30e1      	CPI  R30,LOW(0x1)
00089b f011      	BREQ PC+3
00089c 940c 08b7 	JMP _0x93
                 ; 0000 01BA 			Lcdprintf(0, 0, "   PRESSURE-STEP");
00089e 940e 205b 	CALL SUBOPT_0x1C
                +
0008a0 e1ef     +LDI R30 , LOW ( 2 * _0x0 + 543 )
0008a1 e0f3     +LDI R31 , HIGH ( 2 * _0x0 + 543 )
                 	__POINTW1FN _0x0,543
0008a2 940e 20cc 	CALL SUBOPT_0x2A
                 ; 0000 01BB     		Lcdprintf(0, 1, " STEP     :     STEP");
0008a4 940e 2079 	CALL SUBOPT_0x20
                +
0008a6 e3e0     +LDI R30 , LOW ( 2 * _0x0 + 560 )
0008a7 e0f3     +LDI R31 , HIGH ( 2 * _0x0 + 560 )
                 	__POINTW1FN _0x0,560
0008a8 940e 20cc 	CALL SUBOPT_0x2A
                 ; 0000 01BC             Lcdprintf(0, 2, " LIMIT (%d ~ %d)", PRESSURE_STEP_MIN, PRESSURE_STEP_MAX);
0008aa 940e 20d3 	CALL SUBOPT_0x2B
                +
0008ac ebeb     +LDI R30 , LOW ( 2 * _0x0 + 443 )
0008ad e0f2     +LDI R31 , HIGH ( 2 * _0x0 + 443 )
                 	__POINTW1FN _0x0,443
0008ae 93fa      	ST   -Y,R31
0008af 93ea      	ST   -Y,R30
                +
0008b0 e0e2     +LDI R30 , LOW ( 0x2 )
0008b1 e0f0     +LDI R31 , HIGH ( 0x2 )
0008b2 e060     +LDI R22 , BYTE3 ( 0x2 )
0008b3 e070     +LDI R23 , BYTE4 ( 0x2 )
                 	__GETD1N 0x2
0008b4 940e 2153 	CALL SUBOPT_0x39
                 ; 0000 01BD             LcdCursorOn();
                 ; 0000 01BE             break;
0008b6 c01c      	RJMP _0x92
                 ; 0000 01BF 
                 ; 0000 01C0 		case HIDDEN1_STEP_DELAY:
                 _0x93:
0008b7 30e2      	CPI  R30,LOW(0x2)
0008b8 f011      	BREQ PC+3
0008b9 940c 08d3 	JMP _0x92
                 ; 0000 01C1 			Lcdprintf(0, 0, "     STEP-TIME");
0008bb 940e 205b 	CALL SUBOPT_0x1C
                +
0008bd e4e5     +LDI R30 , LOW ( 2 * _0x0 + 581 )
0008be e0f3     +LDI R31 , HIGH ( 2 * _0x0 + 581 )
                 	__POINTW1FN _0x0,581
0008bf 940e 20cc 	CALL SUBOPT_0x2A
                 ; 0000 01C2     		Lcdprintf(0, 1, " DELAY    :      sec");
0008c1 940e 2079 	CALL SUBOPT_0x20
                +
0008c3 e5e4     +LDI R30 , LOW ( 2 * _0x0 + 596 )
0008c4 e0f3     +LDI R31 , HIGH ( 2 * _0x0 + 596 )
                 	__POINTW1FN _0x0,596
0008c5 940e 20cc 	CALL SUBOPT_0x2A
                 ; 0000 01C3             Lcdprintf(0, 2, " LIMIT (%d ~ %d)", PRESSURE_STEP_DELAY_MIN, PRESSURE_STEP_DELAY_MAX);
0008c7 940e 20d3 	CALL SUBOPT_0x2B
                +
0008c9 ebeb     +LDI R30 , LOW ( 2 * _0x0 + 443 )
0008ca e0f2     +LDI R31 , HIGH ( 2 * _0x0 + 443 )
                 	__POINTW1FN _0x0,443
0008cb 93fa      	ST   -Y,R31
0008cc 93ea      	ST   -Y,R30
                +
0008cd e0e1     +LDI R30 , LOW ( 0x1 )
0008ce e0f0     +LDI R31 , HIGH ( 0x1 )
0008cf e060     +LDI R22 , BYTE3 ( 0x1 )
0008d0 e070     +LDI R23 , BYTE4 ( 0x1 )
                 	__GETD1N 0x1
0008d1 940e 2153 	CALL SUBOPT_0x39
                 ; 0000 01C4             LcdCursorOn();
                 ; 0000 01C5             break;
                 ; 0000 01C6 		}
                 _0x92:
                 ; 0000 01C7 
                 ; 0000 01C8 	    bMenuDisplay = 0;
0008d3 e0e0      	LDI  R30,LOW(0)
0008d4 93e0 0a2a 	STS  _bMenuDisplay,R30
                 ; 0000 01C9         bVarDisplay = 1;
0008d6 e0e1      	LDI  R30,LOW(1)
0008d7 93e0 0a2b 	STS  _bVarDisplay,R30
                 ; 0000 01CA     }
                 ; 0000 01CB 
                 ; 0000 01CC     if (bVarDisplay)
                 _0x73:
0008d9 91e0 0a2b 	LDS  R30,_bVarDisplay
0008db 30e0      	CPI  R30,0
0008dc f411      	BRNE PC+3
0008dd 940c 0b90 	JMP _0x95
                 ; 0000 01CD     {
                 ; 0000 01CE 		switch(Mode1Step)
0008df 91e0 0a3c 	LDS  R30,_Mode1Step
                 ; 0000 01CF 		{
                 ; 0000 01D0 		case MODE1_NOMAL:	// NORMAL
0008e1 30e0      	CPI  R30,0
0008e2 f011      	BREQ PC+3
0008e3 940c 0b41 	JMP _0x99
                 ; 0000 01D1 			if (TestMode)
0008e5 91e0 0a21 	LDS  R30,_TestMode
0008e7 30e0      	CPI  R30,0
0008e8 f411      	BRNE PC+3
0008e9 940c 0922 	JMP _0x9A
                 ; 0000 01D2 			{
                 ; 0000 01D3 				ReadPressure = GetItv();
0008eb 940e 2158 	CALL SUBOPT_0x3A
                 ; 0000 01D4 				Lcdprintf(0, 0, "Ky=%02X,EK=%02X,Ss=%02X", Key, ExtKey, Sensor);
0008ed 940e 205b 	CALL SUBOPT_0x1C
                +
0008ef e6e9     +LDI R30 , LOW ( 2 * _0x0 + 617 )
0008f0 e0f3     +LDI R31 , HIGH ( 2 * _0x0 + 617 )
                 	__POINTW1FN _0x0,617
0008f1 940e 2163 	CALL SUBOPT_0x3B
0008f3 91e0 0b91 	LDS  R30,_ExtKey
0008f5 940e 1fb7 	CALL SUBOPT_0x7
0008f7 91e0 0b92 	LDS  R30,_Sensor
0008f9 940e 1fb7 	CALL SUBOPT_0x7
0008fb e08c      	LDI  R24,12
0008fc 940e 1c04 	CALL _Lcdprintf
0008fe 9660      	ADIW R28,16
                 ; 0000 01D5 				Lcdprintf(0, 1, "Run=%d,Step=%2d,Dly=%2d", bRun, RunStep, RunStepDelay);
0008ff 940e 2079 	CALL SUBOPT_0x20
                +
000901 e8e1     +LDI R30 , LOW ( 2 * _0x0 + 641 )
000902 e0f3     +LDI R31 , HIGH ( 2 * _0x0 + 641 )
                 	__POINTW1FN _0x0,641
000903 940e 2168 	CALL SUBOPT_0x3C
000905 91e0 0a2e 	LDS  R30,_RunStep
000907 940e 1fb7 	CALL SUBOPT_0x7
000909 940e 1ff2 	CALL SUBOPT_0xE
00090b 940e 26ba 	CALL __PUTPARD1
00090d e08c      	LDI  R24,12
00090e 940e 1c04 	CALL _Lcdprintf
000910 9660      	ADIW R28,16
                 ; 0000 01D6 				Lcdprintf(0, 2, "Mode1Step = %d", Mode1Step);
000911 940e 20d3 	CALL SUBOPT_0x2B
                +
000913 e9e9     +LDI R30 , LOW ( 2 * _0x0 + 665 )
000914 e0f3     +LDI R31 , HIGH ( 2 * _0x0 + 665 )
                 	__POINTW1FN _0x0,665
000915 940e 216d 	CALL SUBOPT_0x3D
000917 940e 1fb7 	CALL SUBOPT_0x7
000919 940e 2172 	CALL SUBOPT_0x3E
                 ; 0000 01D7 				//Lcdprintf(0, 3, "CH0 = %ld(0x%04X)", Ltc1865Read(0), Ltc1865Read(0));
                 ; 0000 01D8 				Lcdprintf(0, 3, "CH0 = %d.%02dkgf", ReadPressure / 100, ReadPressure % 100);
00091b 940e 2177 	CALL SUBOPT_0x3F
00091d 940e 218c 	CALL SUBOPT_0x40
00091f 940e 214e 	CALL SUBOPT_0x38
                 ; 0000 01D9 			}else if (bCalib) {
000921 c21e      	RJMP _0x9B
                 _0x9A:
000922 91e0 0a1a 	LDS  R30,_bCalib
000924 30e0      	CPI  R30,0
000925 f411      	BRNE PC+3
000926 940c 09c8 	JMP _0x9C
                 ; 0000 01DA 				switch(CalibStep)
000928 91e0 0a1c 	LDS  R30,_CalibStep
                 ; 0000 01DB 				{
                 ; 0000 01DC 					case 0:
00092a 30e0      	CPI  R30,0
00092b f011      	BREQ PC+3
00092c 940c 092f 	JMP _0xA0
                 ; 0000 01DD 
                 ; 0000 01DE 					case 1:
00092e c004      	RJMP _0xA1
                 _0xA0:
00092f 30e1      	CPI  R30,LOW(0x1)
000930 f011      	BREQ PC+3
000931 940c 0934 	JMP _0xA2
                 _0xA1:
                 ; 0000 01DF 
                 ; 0000 01E0 						break;
000933 c093      	RJMP _0x9F
                 ; 0000 01E1 
                 ; 0000 01E2 					case 10:    // ITV 0.05 Output  4mA  Set VR
                 _0xA2:
000934 30ea      	CPI  R30,LOW(0xA)
000935 f011      	BREQ PC+3
000936 940c 0957 	JMP _0xA3
                 ; 0000 01E3 						Lcdprintf(0, 0, "ITV 4mA Calib Mode!!");
000938 940e 205b 	CALL SUBOPT_0x1C
                +
00093a ebe9     +LDI R30 , LOW ( 2 * _0x0 + 697 )
00093b e0f3     +LDI R31 , HIGH ( 2 * _0x0 + 697 )
                 	__POINTW1FN _0x0,697
00093c 940e 20cc 	CALL SUBOPT_0x2A
                 ; 0000 01E4 						Lcdprintf(0, 1, "Set VR10            ");
00093e 940e 2079 	CALL SUBOPT_0x20
                +
000940 ecee     +LDI R30 , LOW ( 2 * _0x0 + 718 )
000941 e0f3     +LDI R31 , HIGH ( 2 * _0x0 + 718 )
                 	__POINTW1FN _0x0,718
000942 940e 20cc 	CALL SUBOPT_0x2A
                 ; 0000 01E5 						Lcdprintf(0, 2, "AD0 = %ld(0x%04X)", Ltc1865Read(0), Ltc1865Read(0));
000944 940e 20d3 	CALL SUBOPT_0x2B
000946 940e 2199 	CALL SUBOPT_0x41
000948 940e 219e 	CALL SUBOPT_0x42
00094a 940e 21a3 	CALL SUBOPT_0x43
00094c 940e 219e 	CALL SUBOPT_0x42
00094e 940e 213e 	CALL SUBOPT_0x36
                 ; 0000 01E6 						Lcdprintf(0, 3, "CH0 = %d.%02dkgf", ReadPressure / 100, ReadPressure % 100);
000950 940e 2177 	CALL SUBOPT_0x3F
000952 940e 218c 	CALL SUBOPT_0x40
000954 940e 214e 	CALL SUBOPT_0x38
                 ; 0000 01E7 						break;
000956 c070      	RJMP _0x9F
                 ; 0000 01E8 					case 11:    // ITV 9.00 Output  20mA  Set VR
                 _0xA3:
000957 30eb      	CPI  R30,LOW(0xB)
000958 f011      	BREQ PC+3
000959 940c 097a 	JMP _0xA4
                 ; 0000 01E9 						Lcdprintf(0, 0, "ITV 20mA Calib Mode!");
00095b 940e 205b 	CALL SUBOPT_0x1C
                +
00095d efe5     +LDI R30 , LOW ( 2 * _0x0 + 757 )
00095e e0f3     +LDI R31 , HIGH ( 2 * _0x0 + 757 )
                 	__POINTW1FN _0x0,757
00095f 940e 20cc 	CALL SUBOPT_0x2A
                 ; 0000 01EA 						Lcdprintf(0, 1, "Set VR11            ");
000961 940e 2079 	CALL SUBOPT_0x20
                +
000963 e0ea     +LDI R30 , LOW ( 2 * _0x0 + 778 )
000964 e0f4     +LDI R31 , HIGH ( 2 * _0x0 + 778 )
                 	__POINTW1FN _0x0,778
000965 940e 20cc 	CALL SUBOPT_0x2A
                 ; 0000 01EB 						Lcdprintf(0, 2, "AD0 = %ld(0x%04X)", Ltc1865Read(0), Ltc1865Read(0));
000967 940e 20d3 	CALL SUBOPT_0x2B
000969 940e 2199 	CALL SUBOPT_0x41
00096b 940e 219e 	CALL SUBOPT_0x42
00096d 940e 21a3 	CALL SUBOPT_0x43
00096f 940e 219e 	CALL SUBOPT_0x42
000971 940e 213e 	CALL SUBOPT_0x36
                 ; 0000 01EC 						Lcdprintf(0, 3, "CH0 = %d.%02dkgf", ReadPressure / 100, ReadPressure % 100);
000973 940e 2177 	CALL SUBOPT_0x3F
000975 940e 218c 	CALL SUBOPT_0x40
000977 940e 214e 	CALL SUBOPT_0x38
                 ; 0000 01ED 						break;
000979 c04d      	RJMP _0x9F
                 ; 0000 01EE 
                 ; 0000 01EF 					case 12:    // ITV INPUT CALIB
                 _0xA4:
00097a 30ec      	CPI  R30,LOW(0xC)
00097b f011      	BREQ PC+3
00097c 940c 09a1 	JMP _0xA5
                 ; 0000 01F0 						Lcdprintf(0, 0, "ITV 1V Calib Mode! ");
00097e 940e 205b 	CALL SUBOPT_0x1C
                +
000980 e1ef     +LDI R30 , LOW ( 2 * _0x0 + 799 )
000981 e0f4     +LDI R31 , HIGH ( 2 * _0x0 + 799 )
                 	__POINTW1FN _0x0,799
000982 940e 20cc 	CALL SUBOPT_0x2A
                 ; 0000 01F1 						Lcdprintf(0, 1, "Set Volt 1V  :%ld", CalItvMin);
000984 940e 2079 	CALL SUBOPT_0x20
                +
000986 e3e3     +LDI R30 , LOW ( 2 * _0x0 + 819 )
000987 e0f4     +LDI R31 , HIGH ( 2 * _0x0 + 819 )
                 	__POINTW1FN _0x0,819
000988 93fa      	ST   -Y,R31
000989 93ea      	ST   -Y,R30
00098a 940e 21a6 	CALL SUBOPT_0x44
00098c 940e 21af 	CALL SUBOPT_0x45
                 ; 0000 01F2 						Lcdprintf(0, 2, "AD0 = %ld(0x%04X)", Ltc1865Read(0), Ltc1865Read(0));
00098e 940e 20d3 	CALL SUBOPT_0x2B
000990 940e 2199 	CALL SUBOPT_0x41
000992 940e 219e 	CALL SUBOPT_0x42
000994 940e 21a3 	CALL SUBOPT_0x43
000996 940e 219e 	CALL SUBOPT_0x42
000998 940e 213e 	CALL SUBOPT_0x36
                 ; 0000 01F3 						Lcdprintf(0, 3, "CH0 = %d.%02dkgf", ReadPressure / 100, ReadPressure % 100);
00099a 940e 2177 	CALL SUBOPT_0x3F
00099c 940e 218c 	CALL SUBOPT_0x40
00099e 940e 214e 	CALL SUBOPT_0x38
                 ; 0000 01F4 						break;
0009a0 c026      	RJMP _0x9F
                 ; 0000 01F5 					case 13:    // ITV INPUT CALIB
                 _0xA5:
0009a1 30ed      	CPI  R30,LOW(0xD)
0009a2 f011      	BREQ PC+3
0009a3 940c 09c7 	JMP _0x9F
                 ; 0000 01F6 						Lcdprintf(0, 0, "ITV 5V Calib Mode! ");
0009a5 940e 205b 	CALL SUBOPT_0x1C
                +
0009a7 e4e5     +LDI R30 , LOW ( 2 * _0x0 + 837 )
0009a8 e0f4     +LDI R31 , HIGH ( 2 * _0x0 + 837 )
                 	__POINTW1FN _0x0,837
0009a9 940e 20cc 	CALL SUBOPT_0x2A
                 ; 0000 01F7 						Lcdprintf(0, 1, "Set Volt 5V  :%ld", CalItvMax);
0009ab 940e 2079 	CALL SUBOPT_0x20
                +
0009ad e5e9     +LDI R30 , LOW ( 2 * _0x0 + 857 )
0009ae e0f4     +LDI R31 , HIGH ( 2 * _0x0 + 857 )
                 	__POINTW1FN _0x0,857
0009af 93fa      	ST   -Y,R31
0009b0 93ea      	ST   -Y,R30
0009b1 940e 21b2 	CALL SUBOPT_0x46
0009b3 940e 21af 	CALL SUBOPT_0x45
                 ; 0000 01F8 						Lcdprintf(0, 2, "AD0 = %ld(0x%04X)", Ltc1865Read(0), Ltc1865Read(0));
0009b5 940e 20d3 	CALL SUBOPT_0x2B
0009b7 940e 2199 	CALL SUBOPT_0x41
0009b9 940e 219e 	CALL SUBOPT_0x42
0009bb 940e 21a3 	CALL SUBOPT_0x43
0009bd 940e 219e 	CALL SUBOPT_0x42
0009bf 940e 213e 	CALL SUBOPT_0x36
                 ; 0000 01F9 						Lcdprintf(0, 3, "CH0 = %d.%02dkgf", ReadPressure / 100, ReadPressure % 100);
0009c1 940e 2177 	CALL SUBOPT_0x3F
0009c3 940e 218c 	CALL SUBOPT_0x40
0009c5 940e 214e 	CALL SUBOPT_0x38
                 ; 0000 01FA 						break;
                 ; 0000 01FB 
                 ; 0000 01FC 				}
                 _0x9F:
                 ; 0000 01FD 			}else if (HiddenStep) {
0009c7 c178      	RJMP _0xA7
                 _0x9C:
0009c8 91e0 0a3e 	LDS  R30,_HiddenStep
0009ca 30e0      	CPI  R30,0
0009cb f411      	BRNE PC+3
0009cc 940c 09cf 	JMP _0xA8
                 ; 0000 01FE 
                 ; 0000 01FF 			}
                 ; 0000 0200 			else {
0009ce c171      	RJMP _0xA9
                 _0xA8:
                 ; 0000 0201 				ReadPressure = GetItv();
0009cf 940e 2158 	CALL SUBOPT_0x3A
                 ; 0000 0202 				//Lcdprintf(13, 3, "%d.%02dkgf", Pressure / 100, Pressure % 100);
                 ; 0000 0203 				Lcdprintf(13, 3, "%d.%02dkgf", ReadPressure / 100, ReadPressure % 100);
0009d1 e0ed      	LDI  R30,LOW(13)
0009d2 93ea      	ST   -Y,R30
0009d3 e0e3      	LDI  R30,LOW(3)
0009d4 93ea      	ST   -Y,R30
                +
0009d5 e8ee     +LDI R30 , LOW ( 2 * _0x0 + 398 )
0009d6 e0f2     +LDI R31 , HIGH ( 2 * _0x0 + 398 )
                 	__POINTW1FN _0x0,398
0009d7 93fa      	ST   -Y,R31
0009d8 93ea      	ST   -Y,R30
0009d9 91a0 0a4f 	LDS  R26,_ReadPressure
0009db 91b0 0a50 	LDS  R27,_ReadPressure+1
0009dd 9180 0a51 	LDS  R24,_ReadPressure+2
0009df 9190 0a52 	LDS  R25,_ReadPressure+3
                +
0009e1 e6e4     +LDI R30 , LOW ( 0x64 )
0009e2 e0f0     +LDI R31 , HIGH ( 0x64 )
0009e3 e060     +LDI R22 , BYTE3 ( 0x64 )
0009e4 e070     +LDI R23 , BYTE4 ( 0x64 )
                 	__GETD1N 0x64
0009e5 940e 20d8 	CALL SUBOPT_0x2C
0009e7 940e 218c 	CALL SUBOPT_0x40
0009e9 940e 214e 	CALL SUBOPT_0x38
                 ; 0000 0204 				if (bAutoMode) Lcdprintf(16, 2, "%2d.%d", (RunStepTime / 10) / 10, (RunStepTime / 10) % 10);
0009eb 91e0 0a24 	LDS  R30,_bAutoMode
0009ed 30e0      	CPI  R30,0
0009ee f411      	BRNE PC+3
0009ef 940c 09fe 	JMP _0xAA
0009f1 940e 21bb 	CALL SUBOPT_0x47
0009f3 940e 21c4 	CALL SUBOPT_0x48
0009f5 940e 20d8 	CALL SUBOPT_0x2C
0009f7 940e 21c4 	CALL SUBOPT_0x48
0009f9 940e 20dd 	CALL SUBOPT_0x2D
0009fb 940e 214e 	CALL SUBOPT_0x38
                 ; 0000 0205 				else Lcdprintf(16, 2, "%2d.%d", (mRunStepTime / 10) / 10, (mRunStepTime / 10) % 10);
0009fd c00c      	RJMP _0xAB
                 _0xAA:
0009fe 940e 21bb 	CALL SUBOPT_0x47
000a00 940e 21d3 	CALL SUBOPT_0x49
000a02 940e 20d8 	CALL SUBOPT_0x2C
000a04 940e 21d3 	CALL SUBOPT_0x49
000a06 940e 20dd 	CALL SUBOPT_0x2D
000a08 940e 214e 	CALL SUBOPT_0x38
                 ; 0000 0206 				if (bRun)
                 _0xAB:
000a0a 91e0 0a2d 	LDS  R30,_bRun
000a0c 30e0      	CPI  R30,0
000a0d f411      	BRNE PC+3
000a0e 940c 0a80 	JMP _0xAC
                 ; 0000 0207 				{
                 ; 0000 0208 					switch(RunStep)
000a10 91e0 0a2e 	LDS  R30,_RunStep
                 ; 0000 0209 					{
                 ; 0000 020A 					case RUN_STOP:
000a12 30e0      	CPI  R30,0
000a13 f011      	BREQ PC+3
000a14 940c 0a1d 	JMP _0xB0
                 ; 0000 020B 						Lcdprintf(0, 3, "STOP       ");
000a16 940e 21e2 	CALL SUBOPT_0x4A
                +
000a18 e6eb     +LDI R30 , LOW ( 2 * _0x0 + 875 )
000a19 e0f4     +LDI R31 , HIGH ( 2 * _0x0 + 875 )
                 	__POINTW1FN _0x0,875
000a1a 940e 20cc 	CALL SUBOPT_0x2A
                 ; 0000 020C 						break;
000a1c c062      	RJMP _0xAF
                 ; 0000 020D 
                 ; 0000 020E 					case RUN_START_DELAY:
                 _0xB0:
000a1d 30e1      	CPI  R30,LOW(0x1)
000a1e f011      	BREQ PC+3
000a1f 940c 0a28 	JMP _0xB1
                 ; 0000 020F 						Lcdprintf(0, 3, "START DELAY");
000a21 940e 21e2 	CALL SUBOPT_0x4A
                +
000a23 e7e7     +LDI R30 , LOW ( 2 * _0x0 + 887 )
000a24 e0f4     +LDI R31 , HIGH ( 2 * _0x0 + 887 )
                 	__POINTW1FN _0x0,887
000a25 940e 20cc 	CALL SUBOPT_0x2A
                 ; 0000 0210 						break;
000a27 c057      	RJMP _0xAF
                 ; 0000 0211 
                 ; 0000 0212 					case RUN_JIG_IN:
                 _0xB1:
000a28 30e2      	CPI  R30,LOW(0x2)
000a29 f011      	BREQ PC+3
000a2a 940c 0a33 	JMP _0xB2
                 ; 0000 0213 						Lcdprintf(0, 3, "JIG IN     ");
000a2c 940e 21e2 	CALL SUBOPT_0x4A
                +
000a2e e8e3     +LDI R30 , LOW ( 2 * _0x0 + 899 )
000a2f e0f4     +LDI R31 , HIGH ( 2 * _0x0 + 899 )
                 	__POINTW1FN _0x0,899
000a30 940e 20cc 	CALL SUBOPT_0x2A
                 ; 0000 0214 						break;
000a32 c04c      	RJMP _0xAF
                 ; 0000 0215 
                 ; 0000 0216 					case RUN_EXHAUST1:
                 _0xB2:
000a33 30e3      	CPI  R30,LOW(0x3)
000a34 f011      	BREQ PC+3
000a35 940c 0a3e 	JMP _0xB3
                 ; 0000 0217 						Lcdprintf(0, 3, "CYL D1     ");
000a37 940e 21e2 	CALL SUBOPT_0x4A
                +
000a39 e8ef     +LDI R30 , LOW ( 2 * _0x0 + 911 )
000a3a e0f4     +LDI R31 , HIGH ( 2 * _0x0 + 911 )
                 	__POINTW1FN _0x0,911
000a3b 940e 20cc 	CALL SUBOPT_0x2A
                 ; 0000 0218 						break;
000a3d c041      	RJMP _0xAF
                 ; 0000 0219 
                 ; 0000 021A 					case RUN_EXHAUST2:
                 _0xB3:
000a3e 30e4      	CPI  R30,LOW(0x4)
000a3f f011      	BREQ PC+3
000a40 940c 0a49 	JMP _0xB4
                 ; 0000 021B 						Lcdprintf(0, 3, "CYL D2     ");
000a42 940e 21e2 	CALL SUBOPT_0x4A
                +
000a44 e9eb     +LDI R30 , LOW ( 2 * _0x0 + 923 )
000a45 e0f4     +LDI R31 , HIGH ( 2 * _0x0 + 923 )
                 	__POINTW1FN _0x0,923
000a46 940e 20cc 	CALL SUBOPT_0x2A
                 ; 0000 021C 						break;
000a48 c036      	RJMP _0xAF
                 ; 0000 021D 
                 ; 0000 021E 					case RUN_CYL_DOWN:
                 _0xB4:
000a49 30e5      	CPI  R30,LOW(0x5)
000a4a f011      	BREQ PC+3
000a4b 940c 0a54 	JMP _0xB5
                 ; 0000 021F 						Lcdprintf(0, 3, "CYL DOWN   ");
000a4d 940e 21e2 	CALL SUBOPT_0x4A
                +
000a4f eae7     +LDI R30 , LOW ( 2 * _0x0 + 935 )
000a50 e0f4     +LDI R31 , HIGH ( 2 * _0x0 + 935 )
                 	__POINTW1FN _0x0,935
000a51 940e 20cc 	CALL SUBOPT_0x2A
                 ; 0000 0220 						break;
000a53 c02b      	RJMP _0xAF
                 ; 0000 0221 
                 ; 0000 0222 					case RUN_PRESSURE_DELAY:
                 _0xB5:
000a54 30e6      	CPI  R30,LOW(0x6)
000a55 f011      	BREQ PC+3
000a56 940c 0a5f 	JMP _0xB6
                 ; 0000 0223 						Lcdprintf(0, 3, "PRESSURE");
000a58 940e 21e2 	CALL SUBOPT_0x4A
                +
000a5a ebe3     +LDI R30 , LOW ( 2 * _0x0 + 947 )
000a5b e0f4     +LDI R31 , HIGH ( 2 * _0x0 + 947 )
                 	__POINTW1FN _0x0,947
000a5c 940e 20cc 	CALL SUBOPT_0x2A
                 ; 0000 0224 						break;
000a5e c020      	RJMP _0xAF
                 ; 0000 0225 
                 ; 0000 0226 					case RUN_CYL_UP:
                 _0xB6:
000a5f 30e7      	CPI  R30,LOW(0x7)
000a60 f011      	BREQ PC+3
000a61 940c 0a6a 	JMP _0xB7
                 ; 0000 0227 						Lcdprintf(0, 3, "CYL UP     ");
000a63 940e 21e2 	CALL SUBOPT_0x4A
                +
000a65 ebec     +LDI R30 , LOW ( 2 * _0x0 + 956 )
000a66 e0f4     +LDI R31 , HIGH ( 2 * _0x0 + 956 )
                 	__POINTW1FN _0x0,956
000a67 940e 20cc 	CALL SUBOPT_0x2A
                 ; 0000 0228 						break;
000a69 c015      	RJMP _0xAF
                 ; 0000 0229 
                 ; 0000 022A 					case RUN_JIG_OUT:
                 _0xB7:
000a6a 30e8      	CPI  R30,LOW(0x8)
000a6b f011      	BREQ PC+3
000a6c 940c 0a75 	JMP _0xB8
                 ; 0000 022B 						Lcdprintf(0, 3, "JIG OUT    ");
000a6e 940e 21e2 	CALL SUBOPT_0x4A
                +
000a70 ece8     +LDI R30 , LOW ( 2 * _0x0 + 968 )
000a71 e0f4     +LDI R31 , HIGH ( 2 * _0x0 + 968 )
                 	__POINTW1FN _0x0,968
000a72 940e 20cc 	CALL SUBOPT_0x2A
                 ; 0000 022C 						break;
000a74 c00a      	RJMP _0xAF
                 ; 0000 022D 
                 ; 0000 022E 					case RUN_END:
                 _0xB8:
000a75 30e9      	CPI  R30,LOW(0x9)
000a76 f011      	BREQ PC+3
000a77 940c 0a7f 	JMP _0xAF
                 ; 0000 022F 						Lcdprintf(0, 3, "END        ");
000a79 940e 21e2 	CALL SUBOPT_0x4A
                +
000a7b ede4     +LDI R30 , LOW ( 2 * _0x0 + 980 )
000a7c e0f4     +LDI R31 , HIGH ( 2 * _0x0 + 980 )
                 	__POINTW1FN _0x0,980
000a7d 940e 20cc 	CALL SUBOPT_0x2A
                 ; 0000 0230 						break;
                 ; 0000 0231 
                 ; 0000 0232 					}
                 _0xAF:
                 ; 0000 0233 				}else {
000a7f c0c0      	RJMP _0xBA
                 _0xAC:
                 ; 0000 0234 					if ((bEmoState == 1) || (bEmoState == 2))
000a80 91a0 0a55 	LDS  R26,_bEmoState
000a82 30a1      	CPI  R26,LOW(0x1)
000a83 f411      	BRNE PC+3
000a84 940c 0a8d 	JMP _0xBC
000a86 91a0 0a55 	LDS  R26,_bEmoState
000a88 30a2      	CPI  R26,LOW(0x2)
000a89 f411      	BRNE PC+3
000a8a 940c 0a8d 	JMP _0xBC
000a8c c012      	RJMP _0xBB
                 _0xBC:
                 ; 0000 0235 					{
                 ; 0000 0236 						if (bBlink)
000a8d 91e0 0b94 	LDS  R30,_bBlink
000a8f 30e0      	CPI  R30,0
000a90 f411      	BRNE PC+3
000a91 940c 0a9a 	JMP _0xBE
                 ; 0000 0237 						{
                 ; 0000 0238 							Lcdprintf(0, 3, "EMERGENCY!!!");
000a93 940e 21e2 	CALL SUBOPT_0x4A
                +
000a95 eee0     +LDI R30 , LOW ( 2 * _0x0 + 992 )
000a96 e0f4     +LDI R31 , HIGH ( 2 * _0x0 + 992 )
                 	__POINTW1FN _0x0,992
000a97 940e 20cc 	CALL SUBOPT_0x2A
                 ; 0000 0239 							//Lcdprintf(0, 3, "EME%d", bEmoState);
                 ; 0000 023A 						}else {
000a99 c004      	RJMP _0xBF
                 _0xBE:
                 ; 0000 023B 							Lcdprintf(0, 3, "            ");
000a9a 940e 21e2 	CALL SUBOPT_0x4A
000a9c 940e 21e7 	CALL SUBOPT_0x4B
                 ; 0000 023C 						}
                 _0xBF:
                 ; 0000 023D 					}else if (bAutoMode && bSafeSensorFail) {
000a9e c0a1      	RJMP _0xC0
                 _0xBB:
000a9f 91e0 0a24 	LDS  R30,_bAutoMode
000aa1 30e0      	CPI  R30,0
000aa2 f411      	BRNE PC+3
000aa3 940c 0aac 	JMP _0xC2
000aa5 91e0 0a29 	LDS  R30,_bSafeSensorFail
000aa7 30e0      	CPI  R30,0
000aa8 f411      	BRNE PC+3
000aa9 940c 0aac 	JMP _0xC2
000aab c001      	RJMP _0xC3
                 _0xC2:
000aac c012      	RJMP _0xC1
                 _0xC3:
                 ; 0000 023E 						if (bBlink)
000aad 91e0 0b94 	LDS  R30,_bBlink
000aaf 30e0      	CPI  R30,0
000ab0 f411      	BRNE PC+3
000ab1 940c 0aba 	JMP _0xC4
                 ; 0000 023F 						{
                 ; 0000 0240 							Lcdprintf(0, 3, "SAFE SENSOR!");
000ab3 940e 21e2 	CALL SUBOPT_0x4A
                +
000ab5 eeed     +LDI R30 , LOW ( 2 * _0x0 + 1005 )
000ab6 e0f4     +LDI R31 , HIGH ( 2 * _0x0 + 1005 )
                 	__POINTW1FN _0x0,1005
000ab7 940e 20cc 	CALL SUBOPT_0x2A
                 ; 0000 0241 						}else {
000ab9 c004      	RJMP _0xC5
                 _0xC4:
                 ; 0000 0242 							Lcdprintf(0, 3, "            ");
000aba 940e 21e2 	CALL SUBOPT_0x4A
000abc 940e 21e7 	CALL SUBOPT_0x4B
                 ; 0000 0243 						}
                 _0xC5:
                 ; 0000 0244 					}else if (bAutoMode && bDoorSensorFail) {
000abe c081      	RJMP _0xC6
                 _0xC1:
000abf 91e0 0a24 	LDS  R30,_bAutoMode
000ac1 30e0      	CPI  R30,0
000ac2 f411      	BRNE PC+3
000ac3 940c 0acc 	JMP _0xC8
000ac5 91e0 0a28 	LDS  R30,_bDoorSensorFail
000ac7 30e0      	CPI  R30,0
000ac8 f411      	BRNE PC+3
000ac9 940c 0acc 	JMP _0xC8
000acb c001      	RJMP _0xC9
                 _0xC8:
000acc c012      	RJMP _0xC7
                 _0xC9:
                 ; 0000 0245 						if (bBlink)
000acd 91e0 0b94 	LDS  R30,_bBlink
000acf 30e0      	CPI  R30,0
000ad0 f411      	BRNE PC+3
000ad1 940c 0ada 	JMP _0xCA
                 ; 0000 0246 						{
                 ; 0000 0247 							Lcdprintf(0, 3, "DOOR SENSOR!");
000ad3 940e 21e2 	CALL SUBOPT_0x4A
                +
000ad5 efea     +LDI R30 , LOW ( 2 * _0x0 + 1018 )
000ad6 e0f4     +LDI R31 , HIGH ( 2 * _0x0 + 1018 )
                 	__POINTW1FN _0x0,1018
000ad7 940e 20cc 	CALL SUBOPT_0x2A
                 ; 0000 0248 						}else {
000ad9 c004      	RJMP _0xCB
                 _0xCA:
                 ; 0000 0249 							Lcdprintf(0, 3, "            ");
000ada 940e 21e2 	CALL SUBOPT_0x4A
000adc 940e 21e7 	CALL SUBOPT_0x4B
                 ; 0000 024A 						}
                 _0xCB:
                 ; 0000 024B 					}else if (bAutoMode && bPressureFail) {
000ade c061      	RJMP _0xCC
                 _0xC7:
000adf 91e0 0a24 	LDS  R30,_bAutoMode
000ae1 30e0      	CPI  R30,0
000ae2 f411      	BRNE PC+3
000ae3 940c 0aec 	JMP _0xCE
000ae5 91e0 0a27 	LDS  R30,_bPressureFail
000ae7 30e0      	CPI  R30,0
000ae8 f411      	BRNE PC+3
000ae9 940c 0aec 	JMP _0xCE
000aeb c001      	RJMP _0xCF
                 _0xCE:
000aec c012      	RJMP _0xCD
                 _0xCF:
                 ; 0000 024C 						if (bBlink)
000aed 91e0 0b94 	LDS  R30,_bBlink
000aef 30e0      	CPI  R30,0
000af0 f411      	BRNE PC+3
000af1 940c 0afa 	JMP _0xD0
                 ; 0000 024D 						{
                 ; 0000 024E 							Lcdprintf(0, 3, "PRESSURE AL!");
000af3 940e 21e2 	CALL SUBOPT_0x4A
                +
000af5 e0e7     +LDI R30 , LOW ( 2 * _0x0 + 1031 )
000af6 e0f5     +LDI R31 , HIGH ( 2 * _0x0 + 1031 )
                 	__POINTW1FN _0x0,1031
000af7 940e 20cc 	CALL SUBOPT_0x2A
                 ; 0000 024F 						}else {
000af9 c004      	RJMP _0xD1
                 _0xD0:
                 ; 0000 0250 							Lcdprintf(0, 3, "            ");
000afa 940e 21e2 	CALL SUBOPT_0x4A
000afc 940e 21e7 	CALL SUBOPT_0x4B
                 ; 0000 0251 						}
                 _0xD1:
                 ; 0000 0252 					}else if (bAutoMode) {
000afe c041      	RJMP _0xD2
                 _0xCD:
000aff 91e0 0a24 	LDS  R30,_bAutoMode
000b01 30e0      	CPI  R30,0
000b02 f411      	BRNE PC+3
000b03 940c 0b0c 	JMP _0xD3
                 ; 0000 0253 						Lcdprintf(0, 3, "READY        ");
000b05 940e 21e2 	CALL SUBOPT_0x4A
                +
000b07 e1e4     +LDI R30 , LOW ( 2 * _0x0 + 1044 )
000b08 e0f5     +LDI R31 , HIGH ( 2 * _0x0 + 1044 )
                 	__POINTW1FN _0x0,1044
000b09 940e 20cc 	CALL SUBOPT_0x2A
                 ; 0000 0254 					}else {
000b0b c034      	RJMP _0xD4
                 _0xD3:
                 ; 0000 0255 						Lcdprintf(0, 3, "CYL : ");
000b0c 940e 21e2 	CALL SUBOPT_0x4A
                +
000b0e e2e2     +LDI R30 , LOW ( 2 * _0x0 + 1058 )
000b0f e0f5     +LDI R31 , HIGH ( 2 * _0x0 + 1058 )
                 	__POINTW1FN _0x0,1058
000b10 940e 20cc 	CALL SUBOPT_0x2A
                 ; 0000 0256 						if (bCylXIn) Lcdprintf(6, 3, "IN -");
000b12 91e0 0a25 	LDS  R30,_bCylXIn
000b14 30e0      	CPI  R30,0
000b15 f411      	BRNE PC+3
000b16 940c 0b21 	JMP _0xD5
000b18 e0e6      	LDI  R30,LOW(6)
000b19 93ea      	ST   -Y,R30
000b1a e0e3      	LDI  R30,LOW(3)
000b1b 93ea      	ST   -Y,R30
                +
000b1c e2e9     +LDI R30 , LOW ( 2 * _0x0 + 1065 )
000b1d e0f5     +LDI R31 , HIGH ( 2 * _0x0 + 1065 )
                 	__POINTW1FN _0x0,1065
000b1e 940e 20cc 	CALL SUBOPT_0x2A
                 ; 0000 0257 						else Lcdprintf(6, 3, "OUT-");
000b20 c008      	RJMP _0xD6
                 _0xD5:
000b21 e0e6      	LDI  R30,LOW(6)
000b22 93ea      	ST   -Y,R30
000b23 e0e3      	LDI  R30,LOW(3)
000b24 93ea      	ST   -Y,R30
                +
000b25 e2ee     +LDI R30 , LOW ( 2 * _0x0 + 1070 )
000b26 e0f5     +LDI R31 , HIGH ( 2 * _0x0 + 1070 )
                 	__POINTW1FN _0x0,1070
000b27 940e 20cc 	CALL SUBOPT_0x2A
                 ; 0000 0258 
                 ; 0000 0259 						if (bCylYDown) Lcdprintf(10, 3, "DO");
                 _0xD6:
000b29 91e0 0a26 	LDS  R30,_bCylYDown
000b2b 30e0      	CPI  R30,0
000b2c f411      	BRNE PC+3
000b2d 940c 0b38 	JMP _0xD7
000b2f e0ea      	LDI  R30,LOW(10)
000b30 93ea      	ST   -Y,R30
000b31 e0e3      	LDI  R30,LOW(3)
000b32 93ea      	ST   -Y,R30
                +
000b33 e3e3     +LDI R30 , LOW ( 2 * _0x0 + 1075 )
000b34 e0f5     +LDI R31 , HIGH ( 2 * _0x0 + 1075 )
                 	__POINTW1FN _0x0,1075
000b35 940e 20cc 	CALL SUBOPT_0x2A
                 ; 0000 025A 						else Lcdprintf(10, 3, "UP");
000b37 c008      	RJMP _0xD8
                 _0xD7:
000b38 e0ea      	LDI  R30,LOW(10)
000b39 93ea      	ST   -Y,R30
000b3a e0e3      	LDI  R30,LOW(3)
000b3b 93ea      	ST   -Y,R30
                +
000b3c eae3     +LDI R30 , LOW ( 2 * _0x0 + 419 )
000b3d e0f2     +LDI R31 , HIGH ( 2 * _0x0 + 419 )
                 	__POINTW1FN _0x0,419
000b3e 940e 20cc 	CALL SUBOPT_0x2A
                 ; 0000 025B 					}
                 _0xD8:
                 _0xD4:
                 _0xD2:
                 _0xCC:
                 _0xC6:
                 _0xC0:
                 ; 0000 025C 				}
                 _0xBA:
                 ; 0000 025D 
                 ; 0000 025E 			}
                 _0xA9:
                 _0xA7:
                 _0x9B:
                 ; 0000 025F 			break;
000b40 c021      	RJMP _0x98
                 ; 0000 0260 
                 ; 0000 0261 		case MODE2_PRESSURE_SET:	// 압력
                 _0x99:
000b41 30e5      	CPI  R30,LOW(0x5)
000b42 f011      	BREQ PC+3
000b43 940c 0b52 	JMP _0xD9
                 ; 0000 0262 			Lcdprintf(12, 1, "%d.%02d", SetData / 100, SetData % 100);
000b45 940e 210c 	CALL SUBOPT_0x34
000b47 940e 21ea 	CALL SUBOPT_0x4C
000b49 940e 21f1 	CALL SUBOPT_0x4D
000b4b 940e 21ea 	CALL SUBOPT_0x4C
000b4d 940e 21f8 	CALL SUBOPT_0x4E
                 ; 0000 0263 			LineDecision(15, 1);
000b4f 940e 21fd 	CALL SUBOPT_0x4F
                 ; 0000 0264 			break;
000b51 c010      	RJMP _0x98
                 ; 0000 0265 
                 ; 0000 0266 		case MODE2_PRESSURE_DELAY_SET:	// TIME
                 _0xD9:
000b52 30e6      	CPI  R30,LOW(0x6)
000b53 f011      	BREQ PC+3
000b54 940c 0b62 	JMP _0x98
                 ; 0000 0267 			Lcdprintf(12, 1, "%2d.%d", SetData / 10, SetData % 10);
000b56 940e 2203 	CALL SUBOPT_0x50
000b58 940e 220c 	CALL SUBOPT_0x51
000b5a 940e 21f1 	CALL SUBOPT_0x4D
000b5c 940e 220c 	CALL SUBOPT_0x51
000b5e 940e 21f8 	CALL SUBOPT_0x4E
                 ; 0000 0268 			LineDecision(15, 1);
000b60 940e 21fd 	CALL SUBOPT_0x4F
                 ; 0000 0269 			break;
                 ; 0000 026A 		}
                 _0x98:
                 ; 0000 026B 
                 ; 0000 026C 		switch(HiddenStep)
000b62 91e0 0a3e 	LDS  R30,_HiddenStep
                 ; 0000 026D 		{
                 ; 0000 026E 		case HIDDEN1_STEP:
000b64 30e1      	CPI  R30,LOW(0x1)
000b65 f011      	BREQ PC+3
000b66 940c 0b7d 	JMP _0xDE
                 ; 0000 026F 			Lcdprintf(13, 1, "%02d", Hidden1SetData);
000b68 e0ed      	LDI  R30,LOW(13)
000b69 93ea      	ST   -Y,R30
000b6a e0e1      	LDI  R30,LOW(1)
000b6b 93ea      	ST   -Y,R30
                +
000b6c efe0     +LDI R30 , LOW ( 2 * _0x0 + 496 )
000b6d e0f2     +LDI R31 , HIGH ( 2 * _0x0 + 496 )
                 	__POINTW1FN _0x0,496
000b6e 93fa      	ST   -Y,R31
000b6f 93ea      	ST   -Y,R30
000b70 940e 2213 	CALL SUBOPT_0x52
000b72 2766      	CLR  R22
000b73 2777      	CLR  R23
000b74 940e 21af 	CALL SUBOPT_0x45
                 ; 0000 0270 			LineDecision(14, 1);
000b76 e0ee      	LDI  R30,LOW(14)
000b77 93ea      	ST   -Y,R30
000b78 e0e1      	LDI  R30,LOW(1)
000b79 93ea      	ST   -Y,R30
000b7a 940e 1bc7 	CALL _LineDecision
                 ; 0000 0271             break;
000b7c c010      	RJMP _0xDD
                 ; 0000 0272 
                 ; 0000 0273 		case HIDDEN1_STEP_DELAY:
                 _0xDE:
000b7d 30e2      	CPI  R30,LOW(0x2)
000b7e f011      	BREQ PC+3
000b7f 940c 0b8d 	JMP _0xDD
                 ; 0000 0274 			Lcdprintf(12, 1, "%2d.%d", Hidden1SetData / 10, Hidden1SetData % 10);
000b81 940e 2203 	CALL SUBOPT_0x50
000b83 940e 2218 	CALL SUBOPT_0x53
000b85 940e 21f1 	CALL SUBOPT_0x4D
000b87 940e 2218 	CALL SUBOPT_0x53
000b89 940e 21f8 	CALL SUBOPT_0x4E
                 ; 0000 0275             LineDecision(15, 1);
000b8b 940e 21fd 	CALL SUBOPT_0x4F
                 ; 0000 0276             break;
                 ; 0000 0277 		}
                 _0xDD:
                 ; 0000 0278     	bVarDisplay = 0;
000b8d e0e0      	LDI  R30,LOW(0)
000b8e 93e0 0a2b 	STS  _bVarDisplay,R30
                 ; 0000 0279     }
                 ; 0000 027A 
                 ; 0000 027B 
                 ; 0000 027C 	// LED
                 ; 0000 027D     if (bPressureFail)
                 _0x95:
000b90 91e0 0a27 	LDS  R30,_bPressureFail
000b92 30e0      	CPI  R30,0
000b93 f411      	BRNE PC+3
000b94 940c 0b9f 	JMP _0xE0
                 ; 0000 027E     {
                 ; 0000 027F 		if (!bRun)
000b96 91e0 0a2d 	LDS  R30,_bRun
000b98 30e0      	CPI  R30,0
000b99 f011      	BREQ PC+3
000b9a 940c 0b9e 	JMP _0xE1
                 ; 0000 0280         {
                 ; 0000 0281         	LedPassOff();
000b9c 940e 221f 	CALL SUBOPT_0x54
                 ; 0000 0282         	LedFailOn();
                 ; 0000 0283         }
                 ; 0000 0284     }else {
                 _0xE1:
000b9e c018      	RJMP _0xE2
                 _0xE0:
                 ; 0000 0285     	if (bRunAlarm) {
000b9f 91e0 0a3b 	LDS  R30,_bRunAlarm
000ba1 30e0      	CPI  R30,0
000ba2 f411      	BRNE PC+3
000ba3 940c 0bb3 	JMP _0xE3
                 ; 0000 0286         	if (bBlink)
000ba5 91e0 0b94 	LDS  R30,_bBlink
000ba7 30e0      	CPI  R30,0
000ba8 f411      	BRNE PC+3
000ba9 940c 0bae 	JMP _0xE4
                 ; 0000 0287             {
                 ; 0000 0288 				LedPassOff();
000bab 940e 221f 	CALL SUBOPT_0x54
                 ; 0000 0289        			LedFailOn();
                 ; 0000 028A             }else {
000bad c004      	RJMP _0xE5
                 _0xE4:
                 ; 0000 028B 				LedPassOff();
000bae 940e 222a 	CALL SUBOPT_0x55
                 ; 0000 028C        			LedFailOff();
000bb0 940e 2230 	CALL SUBOPT_0x56
                 ; 0000 028D             }
                 _0xE5:
                 ; 0000 028E         }else {
000bb2 c004      	RJMP _0xE6
                 _0xE3:
                 ; 0000 028F 			LedFailOff();
000bb3 940e 2230 	CALL SUBOPT_0x56
                 ; 0000 0290         	LedPassOff();
000bb5 940e 222a 	CALL SUBOPT_0x55
                 ; 0000 0291         }
                 _0xE6:
                 ; 0000 0292     }
                 _0xE2:
                 ; 0000 0293 
                 ; 0000 0294     if (bRun)
000bb7 91e0 0a2d 	LDS  R30,_bRun
000bb9 30e0      	CPI  R30,0
000bba f411      	BRNE PC+3
000bbb 940c 0c00 	JMP _0xE7
                 ; 0000 0295 	{
                 ; 0000 0296        	if (bBlink)
000bbd 91e0 0b94 	LDS  R30,_bBlink
000bbf 30e0      	CPI  R30,0
000bc0 f411      	BRNE PC+3
000bc1 940c 0bc9 	JMP _0xE8
                 ; 0000 0297         {
                 ; 0000 0298 	        LedComOn();
000bc3 91e0 0105 	LDS  R30,261
000bc5 7feb      	ANDI R30,0xFB
000bc6 93e0 0105 	STS  261,R30
                 ; 0000 0299         }else {
000bc8 c002      	RJMP _0xE9
                 _0xE8:
                 ; 0000 029A 	        LedComOff();
000bc9 940e 2236 	CALL SUBOPT_0x57
                 ; 0000 029B         }
                 _0xE9:
                 ; 0000 029C 
                 ; 0000 029D         if (RunStep == RUN_PRESSURE_DELAY)
000bcb 91a0 0a2e 	LDS  R26,_RunStep
000bcd 30a6      	CPI  R26,LOW(0x6)
000bce f011      	BREQ PC+3
000bcf 940c 0bff 	JMP _0xEA
                 ; 0000 029E         {
                 ; 0000 029F             if (!bPressureFail && !bRunAlarm)
000bd1 91e0 0a27 	LDS  R30,_bPressureFail
000bd3 30e0      	CPI  R30,0
000bd4 f011      	BREQ PC+3
000bd5 940c 0bde 	JMP _0xEC
000bd7 91e0 0a3b 	LDS  R30,_bRunAlarm
000bd9 30e0      	CPI  R30,0
000bda f011      	BREQ PC+3
000bdb 940c 0bde 	JMP _0xEC
000bdd c001      	RJMP _0xED
                 _0xEC:
000bde c013      	RJMP _0xEB
                 _0xED:
                 ; 0000 02A0             {
                 ; 0000 02A1                 if (bBlink)
000bdf 91e0 0b94 	LDS  R30,_bBlink
000be1 30e0      	CPI  R30,0
000be2 f411      	BRNE PC+3
000be3 940c 0bed 	JMP _0xEE
                 ; 0000 02A2                 {
                 ; 0000 02A3                     LedPassOn();
000be5 91e0 0105 	LDS  R30,261
000be7 7fe7      	ANDI R30,0XF7
000be8 93e0 0105 	STS  261,R30
                 ; 0000 02A4        			    LedFailOff();
000bea 940e 2230 	CALL SUBOPT_0x56
                 ; 0000 02A5                 } else{
000bec c004      	RJMP _0xEF
                 _0xEE:
                 ; 0000 02A6                     LedPassOff();
000bed 940e 222a 	CALL SUBOPT_0x55
                 ; 0000 02A7        			    LedFailOff();
000bef 940e 2230 	CALL SUBOPT_0x56
                 ; 0000 02A8                 }
                 _0xEF:
                 ; 0000 02A9             }else {
000bf1 c00d      	RJMP _0xF0
                 _0xEB:
                 ; 0000 02AA                 if (bBlink)
000bf2 91e0 0b94 	LDS  R30,_bBlink
000bf4 30e0      	CPI  R30,0
000bf5 f411      	BRNE PC+3
000bf6 940c 0bfb 	JMP _0xF1
                 ; 0000 02AB                 {
                 ; 0000 02AC                     LedPassOff();
000bf8 940e 221f 	CALL SUBOPT_0x54
                 ; 0000 02AD        			    LedFailOn();
                 ; 0000 02AE                 } else {
000bfa c004      	RJMP _0xF2
                 _0xF1:
                 ; 0000 02AF                     LedPassOff();
000bfb 940e 222a 	CALL SUBOPT_0x55
                 ; 0000 02B0        			    LedFailOff();
000bfd 940e 2230 	CALL SUBOPT_0x56
                 ; 0000 02B1                 }
                 _0xF2:
                 ; 0000 02B2             }
                 _0xF0:
                 ; 0000 02B3         }
                 ; 0000 02B4     }else {
                 _0xEA:
000bff c00e      	RJMP _0xF3
                 _0xE7:
                 ; 0000 02B5     	if (bLongKey) LedComOff();
000c00 91e0 0a1b 	LDS  R30,_bLongKey
000c02 30e0      	CPI  R30,0
000c03 f411      	BRNE PC+3
000c04 940c 0c09 	JMP _0xF4
000c06 940e 2236 	CALL SUBOPT_0x57
                 ; 0000 02B6         else LedComOn();
000c08 c005      	RJMP _0xF5
                 _0xF4:
000c09 91e0 0105 	LDS  R30,261
000c0b 7feb      	ANDI R30,0xFB
000c0c 93e0 0105 	STS  261,R30
                 ; 0000 02B7     }
                 _0xF5:
                 _0xF3:
                 ; 0000 02B8 }
000c0e 9508      	RET
                 ;
                 ;void KeySubroutine(void)	// 100ms
                 ; 0000 02BB {
                 _KeySubroutine:
                 ; 0000 02BC 	static unsigned char KeyDownCount = 0;
                 ; 0000 02BD     static unsigned char PrevDownKey = 0;
                 ; 0000 02BE 
                 ; 0000 02BF     if (Key)	// 키 눌려진 상태
000c0f 91e0 0b90 	LDS  R30,_Key
000c11 30e0      	CPI  R30,0
000c12 f411      	BRNE PC+3
000c13 940c 0e12 	JMP _0xF6
                 ; 0000 02C0     {
                 ; 0000 02C1 		PrevDownKey = Key;
000c15 91e0 0b90 	LDS  R30,_Key
000c17 93e0 0b9e 	STS  _PrevDownKey_S0000004,R30
                 ; 0000 02C2     	if (++KeyDownCount >= 200) KeyDownCount--;
000c19 91a0 0b9d 	LDS  R26,_KeyDownCount_S0000004
000c1b 5faf      	SUBI R26,-LOW(1)
000c1c 93a0 0b9d 	STS  _KeyDownCount_S0000004,R26
000c1e 3ca8      	CPI  R26,LOW(0xC8)
000c1f f410      	BRSH PC+3
000c20 940c 0c27 	JMP _0xF7
000c22 91e0 0b9d 	LDS  R30,_KeyDownCount_S0000004
000c24 50e1      	SUBI R30,LOW(1)
000c25 93e0 0b9d 	STS  _KeyDownCount_S0000004,R30
                 ; 0000 02C3 
                 ; 0000 02C4         if (KeyDownCount > 10)	//1sec 이상
                 _0xF7:
000c27 91a0 0b9d 	LDS  R26,_KeyDownCount_S0000004
000c29 30ab      	CPI  R26,LOW(0xB)
000c2a f410      	BRSH PC+3
000c2b 940c 0dbf 	JMP _0xF8
                 ; 0000 02C5         {
                 ; 0000 02C6 			bLongKey = 1;
000c2d e0e1      	LDI  R30,LOW(1)
000c2e 93e0 0a1b 	STS  _bLongKey,R30
                 ; 0000 02C7         	switch(Key)
000c30 91e0 0b90 	LDS  R30,_Key
                 ; 0000 02C8         	{
                 ; 0000 02C9 				case KEY_UP:
000c32 31e0      	CPI  R30,LOW(0x10)
000c33 f011      	BREQ PC+3
000c34 940c 0ccc 	JMP _0xFC
                 ; 0000 02CA                 	switch(Mode1Step)
000c36 91e0 0a3c 	LDS  R30,_Mode1Step
                 ; 0000 02CB                     {
                 ; 0000 02CC                     	case MODE1_NOMAL:
000c38 30e0      	CPI  R30,0
000c39 f011      	BREQ PC+3
000c3a 940c 0c3d 	JMP _0x100
                 ; 0000 02CD                         	break;
000c3c c04b      	RJMP _0xFF
                 ; 0000 02CE                         case MODE2_PRESSURE_SET:	// 압력 설정
                 _0x100:
000c3d 30e5      	CPI  R30,LOW(0x5)
000c3e f011      	BREQ PC+3
000c3f 940c 0c63 	JMP _0x101
                 ; 0000 02CF                         	if (KeyDownCount > 30) {
000c41 91a0 0b9d 	LDS  R26,_KeyDownCount_S0000004
000c43 31af      	CPI  R26,LOW(0x1F)
000c44 f410      	BRSH PC+3
000c45 940c 0c54 	JMP _0x102
                 ; 0000 02D0                             	SetData += 10;
000c47 940e 223c 	CALL SUBOPT_0x58
                 ; 0000 02D1                         		if (SetData > PRESSURE_MAX_) SetData = PRESSURE_MAX_;
000c49 35a9      	CPI  R26,LOW(0x259)
000c4a e0e2      	LDI  R30,HIGH(0x259)
000c4b 07be      	CPC  R27,R30
000c4c f410      	BRSH PC+3
000c4d 940c 0c53 	JMP _0x103
000c4f e5e8      	LDI  R30,LOW(600)
000c50 e0f2      	LDI  R31,HIGH(600)
000c51 940e 224a 	CALL SUBOPT_0x59
                 ; 0000 02D2 							}else {
                 _0x103:
000c53 c00b      	RJMP _0x104
                 _0x102:
                 ; 0000 02D3                         		if (++SetData > PRESSURE_MAX_) SetData--;
000c54 940e 224f 	CALL SUBOPT_0x5A
000c56 940e 2254 	CALL SUBOPT_0x5B
000c58 f410      	BRSH PC+3
000c59 940c 0c5f 	JMP _0x105
000c5b 940e 224f 	CALL SUBOPT_0x5A
000c5d 940e 225b 	CALL SUBOPT_0x5C
                 ; 0000 02D4                             }
                 _0x105:
                 _0x104:
                 ; 0000 02D5                             bVarDisplay = 1;
000c5f e0e1      	LDI  R30,LOW(1)
000c60 93e0 0a2b 	STS  _bVarDisplay,R30
                 ; 0000 02D6                             break;
000c62 c025      	RJMP _0xFF
                 ; 0000 02D7                     	case MODE2_PRESSURE_DELAY_SET:	// Pressure Time
                 _0x101:
000c63 30e6      	CPI  R30,LOW(0x6)
000c64 f011      	BREQ PC+3
000c65 940c 0c88 	JMP _0xFF
                 ; 0000 02D8                         	if (KeyDownCount > 30) {
000c67 91a0 0b9d 	LDS  R26,_KeyDownCount_S0000004
000c69 31af      	CPI  R26,LOW(0x1F)
000c6a f410      	BRSH PC+3
000c6b 940c 0c7a 	JMP _0x107
                 ; 0000 02D9                             	SetData += 10;
000c6d 940e 223c 	CALL SUBOPT_0x58
                 ; 0000 02DA                         		if (SetData > PRESSURE_TIME_MAX) SetData = PRESSURE_TIME_MAX;
000c6f 3ca9      	CPI  R26,LOW(0xC9)
000c70 e0e0      	LDI  R30,HIGH(0xC9)
000c71 07be      	CPC  R27,R30
000c72 f410      	BRSH PC+3
000c73 940c 0c79 	JMP _0x108
000c75 ece8      	LDI  R30,LOW(200)
000c76 e0f0      	LDI  R31,HIGH(200)
000c77 940e 224a 	CALL SUBOPT_0x59
                 ; 0000 02DB                             }else {
                 _0x108:
000c79 c00b      	RJMP _0x109
                 _0x107:
                 ; 0000 02DC                         		if (++SetData > PRESSURE_TIME_MAX) SetData--;
000c7a 940e 224f 	CALL SUBOPT_0x5A
000c7c 940e 2260 	CALL SUBOPT_0x5D
000c7e f410      	BRSH PC+3
000c7f 940c 0c85 	JMP _0x10A
000c81 940e 224f 	CALL SUBOPT_0x5A
000c83 940e 225b 	CALL SUBOPT_0x5C
                 ; 0000 02DD                             }
                 _0x10A:
                 _0x109:
                 ; 0000 02DE                             bVarDisplay = 1;
000c85 e0e1      	LDI  R30,LOW(1)
000c86 93e0 0a2b 	STS  _bVarDisplay,R30
                 ; 0000 02DF                             break;
                 ; 0000 02E0                     }
                 _0xFF:
                 ; 0000 02E1 
                 ; 0000 02E2 					switch(HiddenStep)
000c88 91e0 0a3e 	LDS  R30,_HiddenStep
                 ; 0000 02E3 					{
                 ; 0000 02E4 					case HIDDEN1_STEP:				// 압착 Step Set
000c8a 30e1      	CPI  R30,LOW(0x1)
000c8b f011      	BREQ PC+3
000c8c 940c 0cab 	JMP _0x10E
                 ; 0000 02E5 						if (KeyDownCount > 30) {
000c8e 91a0 0b9d 	LDS  R26,_KeyDownCount_S0000004
000c90 31af      	CPI  R26,LOW(0x1F)
000c91 f410      	BRSH PC+3
000c92 940c 0c9c 	JMP _0x10F
                 ; 0000 02E6 							Hidden1SetData += 10;
000c94 940e 2267 	CALL SUBOPT_0x5E
                 ; 0000 02E7 							if (Hidden1SetData > PRESSURE_STEP_MAX) Hidden1SetData = PRESSURE_STEP_MAX;
000c96 f410      	BRSH PC+3
000c97 940c 0c9b 	JMP _0x110
000c99 940e 2274 	CALL SUBOPT_0x5F
                 ; 0000 02E8 						}else {
                 _0x110:
000c9b c00b      	RJMP _0x111
                 _0x10F:
                 ; 0000 02E9 							if (++Hidden1SetData > PRESSURE_STEP_MAX) Hidden1SetData--;
000c9c 940e 227b 	CALL SUBOPT_0x60
000c9e 940e 2280 	CALL SUBOPT_0x61
000ca0 f410      	BRSH PC+3
000ca1 940c 0ca7 	JMP _0x112
000ca3 940e 227b 	CALL SUBOPT_0x60
000ca5 940e 225b 	CALL SUBOPT_0x5C
                 ; 0000 02EA 						}
                 _0x112:
                 _0x111:
                 ; 0000 02EB 						bVarDisplay = 1;
000ca7 e0e1      	LDI  R30,LOW(1)
000ca8 93e0 0a2b 	STS  _bVarDisplay,R30
                 ; 0000 02EC 						break;
000caa c020      	RJMP _0x10D
                 ; 0000 02ED 					case HIDDEN1_STEP_DELAY:		// 압착 Step Delay Set
                 _0x10E:
000cab 30e2      	CPI  R30,LOW(0x2)
000cac f011      	BREQ PC+3
000cad 940c 0ccb 	JMP _0x10D
                 ; 0000 02EE 						if (KeyDownCount > 30) {
000caf 91a0 0b9d 	LDS  R26,_KeyDownCount_S0000004
000cb1 31af      	CPI  R26,LOW(0x1F)
000cb2 f410      	BRSH PC+3
000cb3 940c 0cbd 	JMP _0x114
                 ; 0000 02EF 							Hidden1SetData += 10;
000cb5 940e 2267 	CALL SUBOPT_0x5E
                 ; 0000 02F0 							if (Hidden1SetData > PRESSURE_STEP_DELAY_MAX) Hidden1SetData = PRESSURE_STEP_DELAY_MAX;
000cb7 f410      	BRSH PC+3
000cb8 940c 0cbc 	JMP _0x115
000cba 940e 2274 	CALL SUBOPT_0x5F
                 ; 0000 02F1 						}else {
                 _0x115:
000cbc c00b      	RJMP _0x116
                 _0x114:
                 ; 0000 02F2 							if (++Hidden1SetData > PRESSURE_STEP_DELAY_MAX) Hidden1SetData--;
000cbd 940e 227b 	CALL SUBOPT_0x60
000cbf 940e 2280 	CALL SUBOPT_0x61
000cc1 f410      	BRSH PC+3
000cc2 940c 0cc8 	JMP _0x117
000cc4 940e 227b 	CALL SUBOPT_0x60
000cc6 940e 225b 	CALL SUBOPT_0x5C
                 ; 0000 02F3 						}
                 _0x117:
                 _0x116:
                 ; 0000 02F4 						bVarDisplay = 1;
000cc8 e0e1      	LDI  R30,LOW(1)
000cc9 93e0 0a2b 	STS  _bVarDisplay,R30
                 ; 0000 02F5 						break;
                 ; 0000 02F6 					}
                 _0x10D:
                 ; 0000 02F7 					break;
000ccb c0a5      	RJMP _0xFB
                 ; 0000 02F8 
                 ; 0000 02F9                 case KEY_DOWN:
                 _0xFC:
000ccc 32e0      	CPI  R30,LOW(0x20)
000ccd f011      	BREQ PC+3
000cce 940c 0d71 	JMP _0xFB
                 ; 0000 02FA                 	switch(Mode1Step)
000cd0 91e0 0a3c 	LDS  R30,_Mode1Step
                 ; 0000 02FB                     {
                 ; 0000 02FC                     	case MODE1_NOMAL:
000cd2 30e0      	CPI  R30,0
000cd3 f011      	BREQ PC+3
000cd4 940c 0cd7 	JMP _0x11C
                 ; 0000 02FD                         	break;
000cd6 c04b      	RJMP _0x11B
                 ; 0000 02FE                         case MODE2_PRESSURE_SET:
                 _0x11C:
000cd7 30e5      	CPI  R30,LOW(0x5)
000cd8 f011      	BREQ PC+3
000cd9 940c 0cfd 	JMP _0x11D
                 ; 0000 02FF                         	if (KeyDownCount > 30) {
000cdb 91a0 0b9d 	LDS  R26,_KeyDownCount_S0000004
000cdd 31af      	CPI  R26,LOW(0x1F)
000cde f410      	BRSH PC+3
000cdf 940c 0cef 	JMP _0x11E
                 ; 0000 0300                             	if (SetData > PRESSURE_MIN + 10) SetData -= 10;
000ce1 940e 2285 	CALL SUBOPT_0x62
000ce3 971b      	SBIW R26,11
000ce4 f410      	BRSH PC+3
000ce5 940c 0cea 	JMP _0x11F
000ce7 940e 228a 	CALL SUBOPT_0x63
                 ; 0000 0301                                 else SetData = PRESSURE_MIN;
000ce9 c004      	RJMP _0x120
                 _0x11F:
000cea e0e0      	LDI  R30,LOW(0)
000ceb e0f0      	LDI  R31,HIGH(0)
000cec 940e 224a 	CALL SUBOPT_0x59
                 ; 0000 0302                         	}else {
                 _0x120:
000cee c00a      	RJMP _0x121
                 _0x11E:
                 ; 0000 0303 	                        	if (SetData > PRESSURE_MIN) SetData--;
000cef 940e 2290 	CALL SUBOPT_0x64
000cf1 f010      	BRLO PC+3
000cf2 940c 0cf9 	JMP _0x122
000cf4 940e 224f 	CALL SUBOPT_0x5A
000cf6 9731      	SBIW R30,1
000cf7 93fe      	ST   -X,R31
000cf8 93ee      	ST   -X,R30
                 ; 0000 0304                             }
                 _0x122:
                 _0x121:
                 ; 0000 0305                             bVarDisplay = 1;
000cf9 e0e1      	LDI  R30,LOW(1)
000cfa 93e0 0a2b 	STS  _bVarDisplay,R30
                 ; 0000 0306                             break;
000cfc c025      	RJMP _0x11B
                 ; 0000 0307                     	case MODE2_PRESSURE_DELAY_SET:	// Pressure Time
                 _0x11D:
000cfd 30e6      	CPI  R30,LOW(0x6)
000cfe f011      	BREQ PC+3
000cff 940c 0d22 	JMP _0x11B
                 ; 0000 0308                         	if (KeyDownCount > 30) {
000d01 91a0 0b9d 	LDS  R26,_KeyDownCount_S0000004
000d03 31af      	CPI  R26,LOW(0x1F)
000d04 f410      	BRSH PC+3
000d05 940c 0d15 	JMP _0x124
                 ; 0000 0309                             	if (SetData > PRESSURE_TIME_MIN + 10) SetData -= 10;
000d07 940e 2285 	CALL SUBOPT_0x62
000d09 971b      	SBIW R26,11
000d0a f410      	BRSH PC+3
000d0b 940c 0d10 	JMP _0x125
000d0d 940e 228a 	CALL SUBOPT_0x63
                 ; 0000 030A                                 else SetData = PRESSURE_TIME_MIN;
000d0f c004      	RJMP _0x126
                 _0x125:
000d10 e0e0      	LDI  R30,LOW(0)
000d11 e0f0      	LDI  R31,HIGH(0)
000d12 940e 224a 	CALL SUBOPT_0x59
                 ; 0000 030B                         	}else {
                 _0x126:
000d14 c00a      	RJMP _0x127
                 _0x124:
                 ; 0000 030C                             	if (SetData > PRESSURE_TIME_MIN) SetData--;
000d15 940e 2290 	CALL SUBOPT_0x64
000d17 f010      	BRLO PC+3
000d18 940c 0d1f 	JMP _0x128
000d1a 940e 224f 	CALL SUBOPT_0x5A
000d1c 9731      	SBIW R30,1
000d1d 93fe      	ST   -X,R31
000d1e 93ee      	ST   -X,R30
                 ; 0000 030D                             }
                 _0x128:
                 _0x127:
                 ; 0000 030E                             bVarDisplay = 1;
000d1f e0e1      	LDI  R30,LOW(1)
000d20 93e0 0a2b 	STS  _bVarDisplay,R30
                 ; 0000 030F                             break;
                 ; 0000 0310                     }
                 _0x11B:
                 ; 0000 0311 
                 ; 0000 0312 					switch(HiddenStep)
000d22 91e0 0a3e 	LDS  R30,_HiddenStep
                 ; 0000 0313 					{
                 ; 0000 0314 					case HIDDEN1_STEP:				// 압착 Step Set
000d24 30e1      	CPI  R30,LOW(0x1)
000d25 f011      	BREQ PC+3
000d26 940c 0d4b 	JMP _0x12C
                 ; 0000 0315 						if (KeyDownCount > 30) {
000d28 91a0 0b9d 	LDS  R26,_KeyDownCount_S0000004
000d2a 31af      	CPI  R26,LOW(0x1F)
000d2b f410      	BRSH PC+3
000d2c 940c 0d3c 	JMP _0x12D
                 ; 0000 0316 							if (Hidden1SetData > PRESSURE_STEP_MIN + 10) Hidden1SetData -= 10;
000d2e 940e 2295 	CALL SUBOPT_0x65
000d30 971d      	SBIW R26,13
000d31 f410      	BRSH PC+3
000d32 940c 0d37 	JMP _0x12E
000d34 940e 229a 	CALL SUBOPT_0x66
                 ; 0000 0317 							else Hidden1SetData = PRESSURE_STEP_MIN;
000d36 c004      	RJMP _0x12F
                 _0x12E:
000d37 e0e2      	LDI  R30,LOW(2)
000d38 e0f0      	LDI  R31,HIGH(2)
000d39 940e 22a2 	CALL SUBOPT_0x67
                 ; 0000 0318 						}else {
                 _0x12F:
000d3b c00b      	RJMP _0x130
                 _0x12D:
                 ; 0000 0319 							if (Hidden1SetData > PRESSURE_STEP_MIN) Hidden1SetData--;
000d3c 940e 2295 	CALL SUBOPT_0x65
000d3e 9713      	SBIW R26,3
000d3f f410      	BRSH PC+3
000d40 940c 0d47 	JMP _0x131
000d42 940e 227b 	CALL SUBOPT_0x60
000d44 9731      	SBIW R30,1
000d45 93fe      	ST   -X,R31
000d46 93ee      	ST   -X,R30
                 ; 0000 031A 						}
                 _0x131:
                 _0x130:
                 ; 0000 031B 						bVarDisplay = 1;
000d47 e0e1      	LDI  R30,LOW(1)
000d48 93e0 0a2b 	STS  _bVarDisplay,R30
                 ; 0000 031C 						break;
000d4a c026      	RJMP _0x12B
                 ; 0000 031D 					case HIDDEN1_STEP_DELAY:		// 압착 Step Delay Set
                 _0x12C:
000d4b 30e2      	CPI  R30,LOW(0x2)
000d4c f011      	BREQ PC+3
000d4d 940c 0d71 	JMP _0x12B
                 ; 0000 031E 						if (KeyDownCount > 30) {
000d4f 91a0 0b9d 	LDS  R26,_KeyDownCount_S0000004
000d51 31af      	CPI  R26,LOW(0x1F)
000d52 f410      	BRSH PC+3
000d53 940c 0d63 	JMP _0x133
                 ; 0000 031F 							if (Hidden1SetData > PRESSURE_STEP_DELAY_MIN + 10) Hidden1SetData -= 10;
000d55 940e 2295 	CALL SUBOPT_0x65
000d57 971c      	SBIW R26,12
000d58 f410      	BRSH PC+3
000d59 940c 0d5e 	JMP _0x134
000d5b 940e 229a 	CALL SUBOPT_0x66
                 ; 0000 0320 							else Hidden1SetData = PRESSURE_STEP_DELAY_MIN;
000d5d c004      	RJMP _0x135
                 _0x134:
000d5e e0e1      	LDI  R30,LOW(1)
000d5f e0f0      	LDI  R31,HIGH(1)
000d60 940e 22a2 	CALL SUBOPT_0x67
                 ; 0000 0321 						}else {
                 _0x135:
000d62 c00b      	RJMP _0x136
                 _0x133:
                 ; 0000 0322 							if (Hidden1SetData > PRESSURE_STEP_DELAY_MIN) Hidden1SetData--;
000d63 940e 2295 	CALL SUBOPT_0x65
000d65 9712      	SBIW R26,2
000d66 f410      	BRSH PC+3
000d67 940c 0d6e 	JMP _0x137
000d69 940e 227b 	CALL SUBOPT_0x60
000d6b 9731      	SBIW R30,1
000d6c 93fe      	ST   -X,R31
000d6d 93ee      	ST   -X,R30
                 ; 0000 0323 						}
                 _0x137:
                 _0x136:
                 ; 0000 0324 						bVarDisplay = 1;
000d6e e0e1      	LDI  R30,LOW(1)
000d6f 93e0 0a2b 	STS  _bVarDisplay,R30
                 ; 0000 0325 						break;
                 ; 0000 0326 					}
                 _0x12B:
                 ; 0000 0327                 	break;
                 ; 0000 0328         	}
                 _0xFB:
                 ; 0000 0329 
                 ; 0000 032A 			if (Key == (SW_START1 | SW_START2))
000d71 91a0 0b90 	LDS  R26,_Key
000d73 38a1      	CPI  R26,LOW(0x81)
000d74 f011      	BREQ PC+3
000d75 940c 0dbe 	JMP _0x138
                 ; 0000 032B             {
                 ; 0000 032C 				if (bAgingMode)
000d77 91e0 0a22 	LDS  R30,_bAgingMode
000d79 30e0      	CPI  R30,0
000d7a f411      	BRNE PC+3
000d7b 940c 0dbe 	JMP _0x139
                 ; 0000 032D 				{
                 ; 0000 032E 					KeyDownCount = 0;
000d7d e0e0      	LDI  R30,LOW(0)
000d7e 93e0 0b9d 	STS  _KeyDownCount_S0000004,R30
                 ; 0000 032F 					SetBuzzer(1, 2);
000d80 940e 2055 	CALL SUBOPT_0x1B
                 ; 0000 0330 					if (!bRun)	//Aging Mode 시작
000d82 91e0 0a2d 	LDS  R30,_bRun
000d84 30e0      	CPI  R30,0
000d85 f011      	BREQ PC+3
000d86 940c 0db2 	JMP _0x13A
                 ; 0000 0331 					{
                 ; 0000 0332 						bAgingEnd = 0;
000d88 e0e0      	LDI  R30,LOW(0)
000d89 93e0 0a23 	STS  _bAgingEnd,R30
                 ; 0000 0333 						if (!bAgingEnd)
000d8b 30e0      	CPI  R30,0
000d8c f011      	BREQ PC+3
000d8d 940c 0db1 	JMP _0x13B
                 ; 0000 0334 						{
                 ; 0000 0335 							if (bDoorSensorFail == 0 && bSafeSensorFail == 0 && !Emo && !bPressureFail)
000d8f 91a0 0a28 	LDS  R26,_bDoorSensorFail
000d91 30a0      	CPI  R26,LOW(0x0)
000d92 f011      	BREQ PC+3
000d93 940c 0da8 	JMP _0x13D
000d95 91a0 0a29 	LDS  R26,_bSafeSensorFail
000d97 30a0      	CPI  R26,LOW(0x0)
000d98 f011      	BREQ PC+3
000d99 940c 0da8 	JMP _0x13D
000d9b 91e0 0b93 	LDS  R30,_Emo
000d9d 30e0      	CPI  R30,0
000d9e f011      	BREQ PC+3
000d9f 940c 0da8 	JMP _0x13D
000da1 91e0 0a27 	LDS  R30,_bPressureFail
000da3 30e0      	CPI  R30,0
000da4 f011      	BREQ PC+3
000da5 940c 0da8 	JMP _0x13D
000da7 c001      	RJMP _0x13E
                 _0x13D:
000da8 c003      	RJMP _0x13C
                 _0x13E:
                 ; 0000 0336 							{
                 ; 0000 0337 								Mode1Step = 0;
000da9 940e 22a7 	CALL SUBOPT_0x68
                 ; 0000 0338 								bRun = 1;
                 ; 0000 0339 								bRunAlarm = 0;
                 ; 0000 033A 								bMenuDisplay = 1;
                 ; 0000 033B 								bVarDisplay = 1;
                 ; 0000 033C 							}else {
000dab c005      	RJMP _0x13F
                 _0x13C:
                 ; 0000 033D 								SetBuzzer(1, 1);
000dac 940e 2074 	CALL SUBOPT_0x1F
                 ; 0000 033E 								bVarDisplay = 1;
000dae e0e1      	LDI  R30,LOW(1)
000daf 93e0 0a2b 	STS  _bVarDisplay,R30
                 ; 0000 033F 							}
                 _0x13F:
                 ; 0000 0340 						}
                 ; 0000 0341 					}else {
                 _0x13B:
000db1 c00c      	RJMP _0x140
                 _0x13A:
                 ; 0000 0342 						bAgingEnd = 1;
000db2 e0e1      	LDI  R30,LOW(1)
000db3 93e0 0a23 	STS  _bAgingEnd,R30
                 ; 0000 0343 						if (bAgingEnd)
000db5 30e0      	CPI  R30,0
000db6 f411      	BRNE PC+3
000db7 940c 0dbe 	JMP _0x141
                 ; 0000 0344 						{
                 ; 0000 0345 							//bRun = 0;
                 ; 0000 0346 							bRunAlarm = 0;
000db9 e0e0      	LDI  R30,LOW(0)
000dba 93e0 0a3b 	STS  _bRunAlarm,R30
                 ; 0000 0347 							bMenuDisplay = 1;
000dbc 940e 20a1 	CALL SUBOPT_0x26
                 ; 0000 0348 							bVarDisplay = 1;
                 ; 0000 0349 
                 ; 0000 034A 							//SetBuzzer(0, 2);
                 ; 0000 034B 						}
                 ; 0000 034C 					}
                 _0x141:
                 _0x140:
                 ; 0000 034D 				}
                 ; 0000 034E             }
                 _0x139:
                 ; 0000 034F 
                 ; 0000 0350         }else {
                 _0x138:
000dbe c052      	RJMP _0x142
                 _0xF8:
                 ; 0000 0351         	if (Key == (SW_START1 | SW_START2))
000dbf 91a0 0b90 	LDS  R26,_Key
000dc1 38a1      	CPI  R26,LOW(0x81)
000dc2 f011      	BREQ PC+3
000dc3 940c 0e11 	JMP _0x143
                 ; 0000 0352             {
                 ; 0000 0353 				if (bReturnSensor == 1 || bEmoState == 1)
000dc5 91a0 0a18 	LDS  R26,_bReturnSensor
000dc7 30a1      	CPI  R26,LOW(0x1)
000dc8 f411      	BRNE PC+3
000dc9 940c 0dd2 	JMP _0x145
000dcb 91a0 0a55 	LDS  R26,_bEmoState
000dcd 30a1      	CPI  R26,LOW(0x1)
000dce f411      	BRNE PC+3
000dcf 940c 0dd2 	JMP _0x145
000dd1 c006      	RJMP _0x144
                 _0x145:
                 ; 0000 0354 				{
                 ; 0000 0355 					bReturnSensor = 2;
000dd2 e0e2      	LDI  R30,LOW(2)
000dd3 93e0 0a18 	STS  _bReturnSensor,R30
                 ; 0000 0356 					bEmoState = 2;
000dd5 93e0 0a55 	STS  _bEmoState,R30
                 ; 0000 0357 				}else if (!bAgingMode && bAutoMode && !bRun)
000dd7 c039      	RJMP _0x147
                 _0x144:
000dd8 91e0 0a22 	LDS  R30,_bAgingMode
000dda 30e0      	CPI  R30,0
000ddb f011      	BREQ PC+3
000ddc 940c 0deb 	JMP _0x149
000dde 91e0 0a24 	LDS  R30,_bAutoMode
000de0 30e0      	CPI  R30,0
000de1 f411      	BRNE PC+3
000de2 940c 0deb 	JMP _0x149
000de4 91e0 0a2d 	LDS  R30,_bRun
000de6 30e0      	CPI  R30,0
000de7 f011      	BREQ PC+3
000de8 940c 0deb 	JMP _0x149
000dea c001      	RJMP _0x14A
                 _0x149:
000deb c025      	RJMP _0x148
                 _0x14A:
                 ; 0000 0358 				{
                 ; 0000 0359 					bAgingMode = 0;
000dec e0e0      	LDI  R30,LOW(0)
000ded 93e0 0a22 	STS  _bAgingMode,R30
                 ; 0000 035A 					if (bDoorSensorFail == 0 && bSafeSensorFail == 0 && !Emo && !bPressureFail)
000def 91a0 0a28 	LDS  R26,_bDoorSensorFail
000df1 30a0      	CPI  R26,LOW(0x0)
000df2 f011      	BREQ PC+3
000df3 940c 0e08 	JMP _0x14C
000df5 91a0 0a29 	LDS  R26,_bSafeSensorFail
000df7 30a0      	CPI  R26,LOW(0x0)
000df8 f011      	BREQ PC+3
000df9 940c 0e08 	JMP _0x14C
000dfb 91e0 0b93 	LDS  R30,_Emo
000dfd 30e0      	CPI  R30,0
000dfe f011      	BREQ PC+3
000dff 940c 0e08 	JMP _0x14C
000e01 91e0 0a27 	LDS  R30,_bPressureFail
000e03 30e0      	CPI  R30,0
000e04 f011      	BREQ PC+3
000e05 940c 0e08 	JMP _0x14C
000e07 c001      	RJMP _0x14D
                 _0x14C:
000e08 c003      	RJMP _0x14B
                 _0x14D:
                 ; 0000 035B 					{
                 ; 0000 035C 						Mode1Step = 0;
000e09 940e 22a7 	CALL SUBOPT_0x68
                 ; 0000 035D 						bRun = 1;
                 ; 0000 035E 						bRunAlarm = 0;
                 ; 0000 035F 						bMenuDisplay = 1;
                 ; 0000 0360 						bVarDisplay = 1;
                 ; 0000 0361 					}else {
000e0b c005      	RJMP _0x14E
                 _0x14B:
                 ; 0000 0362 						SetBuzzer(1, 1);
000e0c 940e 2074 	CALL SUBOPT_0x1F
                 ; 0000 0363 						bVarDisplay = 1;
000e0e e0e1      	LDI  R30,LOW(1)
000e0f 93e0 0a2b 	STS  _bVarDisplay,R30
                 ; 0000 0364 					}
                 _0x14E:
                 ; 0000 0365 				}
                 ; 0000 0366             }
                 _0x148:
                 _0x147:
                 ; 0000 0367         }
                 _0x143:
                 _0x142:
                 ; 0000 0368     }else {	// 키 UP 상태
000e11 c3a1      	RJMP _0x14F
                 _0xF6:
                 ; 0000 0369     	if (PrevDownKey)
000e12 91e0 0b9e 	LDS  R30,_PrevDownKey_S0000004
000e14 30e0      	CPI  R30,0
000e15 f411      	BRNE PC+3
000e16 940c 1189 	JMP _0x150
                 ; 0000 036A         {
                 ; 0000 036B         	SetupExitTime = SETUP_EXIT_TIME;
000e18 e6e4      	LDI  R30,LOW(100)
000e19 e0f0      	LDI  R31,HIGH(100)
000e1a 93e0 0a3f 	STS  _SetupExitTime,R30
000e1c 93f0 0a40 	STS  _SetupExitTime+1,R31
                 ; 0000 036C     		if (KeyDownCount < 10)	// Short Key 1sec 이하
000e1e 91a0 0b9d 	LDS  R26,_KeyDownCount_S0000004
000e20 30aa      	CPI  R26,LOW(0xA)
000e21 f010      	BRLO PC+3
000e22 940c 1087 	JMP _0x151
                 ; 0000 036D         	{
                 ; 0000 036E         		switch(PrevDownKey)
000e24 91e0 0b9e 	LDS  R30,_PrevDownKey_S0000004
                 ; 0000 036F                 {
                 ; 0000 0370 				case KEY_MENU:	// Mode 설정
000e26 30e2      	CPI  R30,LOW(0x2)
000e27 f011      	BREQ PC+3
000e28 940c 0e2b 	JMP _0x155
                 ; 0000 0371 					/*
                 ; 0000 0372                 	if (Mode1Step)
                 ; 0000 0373                     {
                 ; 0000 0374 						//  Type 설정 모드
                 ; 0000 0375 						if (Mode1Step >= MODE1_OCTA && Mode1Step <= MODE1_ETC)
                 ; 0000 0376 						{
                 ; 0000 0377 							if (++Mode1Step >= 5) Mode1Step = 1;	// 복귀
                 ; 0000 0378 //							sMode1Step = Mode1Step;
                 ; 0000 0379 //							SetEeprom2(6, Mode1Step);
                 ; 0000 037A 
                 ; 0000 037B 						} else {
                 ; 0000 037C 							//  압력/시간 설정모드
                 ; 0000 037D  							if (Mode1Step >= MODE2_PRESSURE_SET && Mode1Step <= MODE2_PRESSURE_DELAY_SET)
                 ; 0000 037E 							{
                 ; 0000 037F 								if (++Mode1Step >= 7) Mode1Step = 5;
                 ; 0000 0380 
                 ; 0000 0381 								if (Mode1Step == MODE2_PRESSURE_SET) SetData = Pressure;
                 ; 0000 0382 								else if (Mode1Step == MODE2_PRESSURE_DELAY_SET) SetData = PressureTime;
                 ; 0000 0383 							}
                 ; 0000 0384 						}
                 ; 0000 0385 
                 ; 0000 0386 	                    bMenuDisplay = 1;
                 ; 0000 0387                     }
                 ; 0000 0388 					*/
                 ; 0000 0389                     break;
000e2a c25b      	RJMP _0x154
                 ; 0000 038A 				case KEY_MODE:	// 자동/수동
                 _0x155:
000e2b 30e4      	CPI  R30,LOW(0x4)
000e2c f011      	BREQ PC+3
000e2d 940c 0e30 	JMP _0x156
                 ; 0000 038B                 	break;
000e2f c256      	RJMP _0x154
                 ; 0000 038C 
                 ; 0000 038D 				case KEY_ENTER:
                 _0x156:
000e30 30e8      	CPI  R30,LOW(0x8)
000e31 f011      	BREQ PC+3
000e32 940c 0f08 	JMP _0x157
                 ; 0000 038E 					if (HiddenStep)
000e34 91e0 0a3e 	LDS  R30,_HiddenStep
000e36 30e0      	CPI  R30,0
000e37 f411      	BRNE PC+3
000e38 940c 0e60 	JMP _0x158
                 ; 0000 038F 					{
                 ; 0000 0390 						switch(HiddenStep)
                 ; 0000 0391 						{
                 ; 0000 0392 							case HIDDEN1_STEP:				// 압착 Step Set
000e3a 30e1      	CPI  R30,LOW(0x1)
000e3b f011      	BREQ PC+3
000e3c 940c 0e4e 	JMP _0x15C
                 ; 0000 0393 								PressureStep = Hidden1SetData;
000e3e 940e 2213 	CALL SUBOPT_0x52
000e40 940e 22b1 	CALL SUBOPT_0x69
                 ; 0000 0394 								SetEeprom2(16, PressureStep);
000e42 940e 22b6 	CALL SUBOPT_0x6A
                 ; 0000 0395 
                 ; 0000 0396 								HiddenStep = HIDDEN1_STEP_DELAY;
000e44 e0e2      	LDI  R30,LOW(2)
000e45 93e0 0a3e 	STS  _HiddenStep,R30
                 ; 0000 0397 								Hidden1SetData = sPressureStepDelay;
000e47 940e 22c2 	CALL SUBOPT_0x6B
000e49 940e 22c7 	CALL SUBOPT_0x6C
                 ; 0000 0398 								bMenuDisplay = 1;
                 ; 0000 0399 								SetBuzzer(0, 0);
000e4b 940e 04ad 	CALL _SetBuzzer
                 ; 0000 039A 								break;
000e4d c011      	RJMP _0x15B
                 ; 0000 039B 							case HIDDEN1_STEP_DELAY:		// 압착 Step Delay Set
                 _0x15C:
000e4e 30e2      	CPI  R30,LOW(0x2)
000e4f f011      	BREQ PC+3
000e50 940c 0e5f 	JMP _0x15B
                 ; 0000 039C 								sPressureStepDelay = Hidden1SetData;
000e52 940e 2213 	CALL SUBOPT_0x52
000e54 940e 22cd 	CALL SUBOPT_0x6D
                 ; 0000 039D 								SetEeprom2(18, sPressureStepDelay);
000e56 940e 22d2 	CALL SUBOPT_0x6E
                 ; 0000 039E 
                 ; 0000 039F 								HiddenStep = HIDDEN1_STEP;
000e58 e0e1      	LDI  R30,LOW(1)
000e59 940e 22dc 	CALL SUBOPT_0x6F
                 ; 0000 03A0 								Hidden1SetData = PressureStep;
000e5b 940e 22c7 	CALL SUBOPT_0x6C
                 ; 0000 03A1 								bMenuDisplay = 1;
                 ; 0000 03A2 								SetBuzzer(0, 0);
000e5d 940e 04ad 	CALL _SetBuzzer
                 ; 0000 03A3 								break;
                 ; 0000 03A4 						}
                 _0x15B:
                 ; 0000 03A5 					} else if (Mode1Step >= MODE1_OCTA && Mode1Step <= MODE1_ETC){ 	// Zone Mode일때만
000e5f c076      	RJMP _0x15E
                 _0x158:
000e60 91a0 0a3c 	LDS  R26,_Mode1Step
000e62 30a1      	CPI  R26,LOW(0x1)
000e63 f410      	BRSH PC+3
000e64 940c 0e6b 	JMP _0x160
000e66 30a5      	CPI  R26,LOW(0x5)
000e67 f010      	BRLO PC+3
000e68 940c 0e6b 	JMP _0x160
000e6a c001      	RJMP _0x161
                 _0x160:
000e6b c03e      	RJMP _0x15F
                 _0x161:
                 ; 0000 03A6 						// Mode Switching
                 ; 0000 03A7 						sMode1Step = Mode1Step;
000e6c 91e0 0a3c 	LDS  R30,_Mode1Step
000e6e 93e0 0a3d 	STS  _sMode1Step,R30
                 ; 0000 03A8 						SetEeprom2(6, Mode1Step);
000e70 e0e6      	LDI  R30,LOW(6)
000e71 e0f0      	LDI  R31,HIGH(6)
000e72 940e 216d 	CALL SUBOPT_0x3D
000e74 940e 22e3 	CALL SUBOPT_0x70
                 ; 0000 03A9 						switch (Mode1Step)
000e76 91e0 0a3c 	LDS  R30,_Mode1Step
                 ; 0000 03AA 						{
                 ; 0000 03AB 						case MODE1_OCTA:
000e78 30e1      	CPI  R30,LOW(0x1)
000e79 f011      	BREQ PC+3
000e7a 940c 0e7f 	JMP _0x165
                 ; 0000 03AC 							Pressure = OCTA_PRESSURE;
000e7c 940e 22e8 	CALL SUBOPT_0x71
                 ; 0000 03AD 							PressureTime = OCTA_PRESSURE_TIME;
                 ; 0000 03AE 							break;
000e7e c020      	RJMP _0x164
                 ; 0000 03AF 						case MODE1_TAPE:
                 _0x165:
000e7f 30e2      	CPI  R30,LOW(0x2)
000e80 f011      	BREQ PC+3
000e81 940c 0e88 	JMP _0x166
                 ; 0000 03B0 							Pressure = TYPE_PRESSURE;
000e83 940e 2301 	CALL SUBOPT_0x72
                 ; 0000 03B1 							PressureTime = TYPE_PRESSURE_TIME;
000e85 940e 230e 	CALL SUBOPT_0x73
                 ; 0000 03B2 							break;
000e87 c017      	RJMP _0x164
                 ; 0000 03B3 						case MODE1_BATTERY:
                 _0x166:
000e88 30e3      	CPI  R30,LOW(0x3)
000e89 f011      	BREQ PC+3
000e8a 940c 0e8f 	JMP _0x167
                 ; 0000 03B4 							Pressure = BATTERY_PRESSURE;
000e8c 940e 22e8 	CALL SUBOPT_0x71
                 ; 0000 03B5 							PressureTime = BATTERY_PRESSURE_TIME;
                 ; 0000 03B6 							break;
000e8e c010      	RJMP _0x164
                 ; 0000 03B7 						case MODE1_ETC:
                 _0x167:
000e8f 30e4      	CPI  R30,LOW(0x4)
000e90 f011      	BREQ PC+3
000e91 940c 0e9f 	JMP _0x164
                 ; 0000 03B8 							Pressure = GetEeprom2(2);
000e93 940e 231b 	CALL SUBOPT_0x74
000e95 940e 2083 	CALL SUBOPT_0x22
000e97 940e 2320 	CALL SUBOPT_0x75
                 ; 0000 03B9 							PressureTime = GetEeprom2(0);
000e99 940e 1fd9 	CALL SUBOPT_0xA
000e9b 940e 2083 	CALL SUBOPT_0x22
000e9d 940e 2329 	CALL SUBOPT_0x76
                 ; 0000 03BA 							break;
                 ; 0000 03BB 						}
                 _0x164:
                 ; 0000 03BC 
                 ; 0000 03BD 						Mode1Step = MODE2_PRESSURE_SET;
000e9f 940e 2332 	CALL SUBOPT_0x77
                 ; 0000 03BE 						SetData = Pressure;
                 ; 0000 03BF 						SetEeprom2(2, Pressure);
000ea1 940e 231b 	CALL SUBOPT_0x74
000ea3 940e 233a 	CALL SUBOPT_0x78
                 ; 0000 03C0 						SetItv(Pressure);
                 ; 0000 03C1 						bMenuDisplay = 1;
000ea5 940e 2343 	CALL SUBOPT_0x79
                 ; 0000 03C2 						SetBuzzer(0, 0);
000ea7 940e 04ad 	CALL _SetBuzzer
                 ; 0000 03C3 					} else{
000ea9 c02c      	RJMP _0x169
                 _0x15F:
                 ; 0000 03C4 						switch(Mode1Step)
000eaa 91e0 0a3c 	LDS  R30,_Mode1Step
                 ; 0000 03C5 						{
                 ; 0000 03C6 						case MODE2_PRESSURE_SET:	// 압력
000eac 30e5      	CPI  R30,LOW(0x5)
000ead f011      	BREQ PC+3
000eae 940c 0ec4 	JMP _0x16D
                 ; 0000 03C7 							Pressure = SetData;
000eb0 940e 2347 	CALL SUBOPT_0x7A
000eb2 940e 2320 	CALL SUBOPT_0x75
                 ; 0000 03C8 							SetEeprom2(2, Pressure);
000eb4 940e 231b 	CALL SUBOPT_0x74
000eb6 940e 233a 	CALL SUBOPT_0x78
                 ; 0000 03C9 							SetItv(Pressure);
                 ; 0000 03CA 
                 ; 0000 03CB 							Mode1Step = MODE2_PRESSURE_DELAY_SET;
000eb8 e0e6      	LDI  R30,LOW(6)
000eb9 93e0 0a3c 	STS  _Mode1Step,R30
                 ; 0000 03CC 							SetData = PressureTime;
000ebb 940e 234e 	CALL SUBOPT_0x7B
000ebd 940e 224a 	CALL SUBOPT_0x59
                 ; 0000 03CD 							bMenuDisplay = 1;
000ebf 940e 2343 	CALL SUBOPT_0x79
                 ; 0000 03CE 							SetBuzzer(0, 0);
000ec1 940e 04ad 	CALL _SetBuzzer
                 ; 0000 03CF 							break;
000ec3 c012      	RJMP _0x16C
                 ; 0000 03D0 						case MODE2_PRESSURE_DELAY_SET:	// 압력시간
                 _0x16D:
000ec4 30e6      	CPI  R30,LOW(0x6)
000ec5 f011      	BREQ PC+3
000ec6 940c 0ed6 	JMP _0x16C
                 ; 0000 03D1 							PressureTime = SetData;
000ec8 940e 2347 	CALL SUBOPT_0x7A
000eca 940e 2329 	CALL SUBOPT_0x76
                 ; 0000 03D2 							SetEeprom2(0, PressureTime);
000ecc 940e 1fd9 	CALL SUBOPT_0xA
000ece 940e 2353 	CALL SUBOPT_0x7C
                 ; 0000 03D3 
                 ; 0000 03D4 							Mode1Step = MODE2_PRESSURE_SET;
000ed0 940e 2332 	CALL SUBOPT_0x77
                 ; 0000 03D5 							SetData = Pressure;
                 ; 0000 03D6 							bMenuDisplay = 1;
000ed2 940e 2343 	CALL SUBOPT_0x79
                 ; 0000 03D7 							SetBuzzer(0, 0);
000ed4 940e 04ad 	CALL _SetBuzzer
                 ; 0000 03D8 							break;
                 ; 0000 03D9 						}
                 _0x16C:
                 ; 0000 03DA 					}
                 _0x169:
                 _0x15E:
                 ; 0000 03DB 
                 ; 0000 03DC 
                 ; 0000 03DD                     if (bCalib && CalibStep >= 10){
000ed6 91e0 0a1a 	LDS  R30,_bCalib
000ed8 30e0      	CPI  R30,0
000ed9 f411      	BRNE PC+3
000eda 940c 0ee3 	JMP _0x170
000edc 91a0 0a1c 	LDS  R26,_CalibStep
000ede 30aa      	CPI  R26,LOW(0xA)
000edf f410      	BRSH PC+3
000ee0 940c 0ee3 	JMP _0x170
000ee2 c001      	RJMP _0x171
                 _0x170:
000ee3 c023      	RJMP _0x16F
                 _0x171:
                 ; 0000 03DE                         switch(CalibStep)
000ee4 91e0 0a1c 	LDS  R30,_CalibStep
                 ; 0000 03DF                         {
                 ; 0000 03E0                             case 12:
000ee6 30ec      	CPI  R30,LOW(0xC)
000ee7 f011      	BREQ PC+3
000ee8 940c 0ef5 	JMP _0x175
                 ; 0000 03E1                             	CalItvMin = Ltc1865Read(0);
000eea 940e 1fd9 	CALL SUBOPT_0xA
000eec 940e 219e 	CALL SUBOPT_0x42
000eee 940e 2088 	CALL SUBOPT_0x23
                 ; 0000 03E2                             	SetEeprom2(10, CalItvMin);
000ef0 940e 207e 	CALL SUBOPT_0x21
000ef2 940e 2359 	CALL SUBOPT_0x7D
                 ; 0000 03E3                                 break;
000ef4 c00e      	RJMP _0x174
                 ; 0000 03E4 
                 ; 0000 03E5                             case 13:
                 _0x175:
000ef5 30ed      	CPI  R30,LOW(0xD)
000ef6 f011      	BREQ PC+3
000ef7 940c 0f03 	JMP _0x174
                 ; 0000 03E6                             	CalItvMax = (unsigned long)((unsigned long)Ltc1865Read(0) * 1);
000ef9 940e 1fd9 	CALL SUBOPT_0xA
000efb 940e 219e 	CALL SUBOPT_0x42
000efd 940e 2361 	CALL SUBOPT_0x7E
                 ; 0000 03E7                             	SetEeprom4(12, CalItvMax);
000eff 940e 2091 	CALL SUBOPT_0x24
000f01 940e 236a 	CALL SUBOPT_0x7F
                 ; 0000 03E8                                 break;
                 ; 0000 03E9                         }
                 _0x174:
                 ; 0000 03EA                        SetBuzzer(0, 0);
000f03 940e 205b 	CALL SUBOPT_0x1C
000f05 940e 04ad 	CALL _SetBuzzer
                 ; 0000 03EB                     }
                 ; 0000 03EC             		break;
                 _0x16F:
000f07 c17e      	RJMP _0x154
                 ; 0000 03ED 
                 ; 0000 03EE 				case KEY_UP:
                 _0x157:
000f08 31e0      	CPI  R30,LOW(0x10)
000f09 f011      	BREQ PC+3
000f0a 940c 0fb5 	JMP _0x177
                 ; 0000 03EF 					if (!HiddenStep)
000f0c 91e0 0a3e 	LDS  R30,_HiddenStep
000f0e 30e0      	CPI  R30,0
000f0f f011      	BREQ PC+3
000f10 940c 0f89 	JMP _0x178
                 ; 0000 03F0 					{
                 ; 0000 03F1 						switch(Mode1Step)
000f12 91e0 0a3c 	LDS  R30,_Mode1Step
                 ; 0000 03F2 						{
                 ; 0000 03F3 							case MODE1_NOMAL:
000f14 30e0      	CPI  R30,0
000f15 f011      	BREQ PC+3
000f16 940c 0f40 	JMP _0x17C
                 ; 0000 03F4 								if (!bAutoMode)	// Manual Mode 동작
000f18 91e0 0a24 	LDS  R30,_bAutoMode
000f1a 30e0      	CPI  R30,0
000f1b f011      	BREQ PC+3
000f1c 940c 0f3f 	JMP _0x17D
                 ; 0000 03F5 								{
                 ; 0000 03F6 									SetItv(PRESSURE_NOMAL);     // 15.01.27 기구적 실린더 동작 문제로 2.0k로 고정
000f1e 940e 1fde 	CALL SUBOPT_0xB
                 ; 0000 03F7 									if (Sensor & CYL_X_IN_SENSOR || Sensor & CYL_X_OUT_SENSOR)
000f20 91e0 0b92 	LDS  R30,_Sensor
000f22 70e2      	ANDI R30,LOW(0x2)
000f23 f011      	BREQ PC+3
000f24 940c 0f2d 	JMP _0x17F
000f26 91e0 0b92 	LDS  R30,_Sensor
000f28 70e1      	ANDI R30,LOW(0x1)
000f29 f011      	BREQ PC+3
000f2a 940c 0f2d 	JMP _0x17F
000f2c c00f      	RJMP _0x17E
                 _0x17F:
                 ; 0000 03F8 									{
                 ; 0000 03F9 										bCylYDown = !bCylYDown;
000f2d 91e0 0a26 	LDS  R30,_bCylYDown
000f2f 940e 260f 	CALL __LNEGB1
000f31 93e0 0a26 	STS  _bCylYDown,R30
                 ; 0000 03FA 										if (bCylYDown) CYL_Y_DOWN;
000f33 30e0      	CPI  R30,0
000f34 f411      	BRNE PC+3
000f35 940c 0f3a 	JMP _0x181
000f37 940e 2031 	CALL SUBOPT_0x17
                 ; 0000 03FB 										else CYL_Y_UP;
000f39 c002      	RJMP _0x182
                 _0x181:
000f3a 940e 204a 	CALL SUBOPT_0x1A
                 ; 0000 03FC 									}
                 _0x182:
                 ; 0000 03FD 									bVarDisplay = 1;
                 _0x17E:
000f3c e0e1      	LDI  R30,LOW(1)
000f3d 93e0 0a2b 	STS  _bVarDisplay,R30
                 ; 0000 03FE 								}
                 ; 0000 03FF 								break;
                 _0x17D:
000f3f c048      	RJMP _0x17B
                 ; 0000 0400 							case MODE1_OCTA:
                 _0x17C:
000f40 30e1      	CPI  R30,LOW(0x1)
000f41 f011      	BREQ PC+3
000f42 940c 0f45 	JMP _0x183
                 ; 0000 0401 							case MODE1_TAPE:
000f44 c004      	RJMP _0x184
                 _0x183:
000f45 30e2      	CPI  R30,LOW(0x2)
000f46 f011      	BREQ PC+3
000f47 940c 0f4a 	JMP _0x185
                 _0x184:
                 ; 0000 0402 							case MODE1_BATTERY:
000f49 c004      	RJMP _0x186
                 _0x185:
000f4a 30e3      	CPI  R30,LOW(0x3)
000f4b f011      	BREQ PC+3
000f4c 940c 0f4f 	JMP _0x187
                 _0x186:
                 ; 0000 0403 							case MODE1_ETC:
000f4e c004      	RJMP _0x188
                 _0x187:
000f4f 30e4      	CPI  R30,LOW(0x4)
000f50 f011      	BREQ PC+3
000f51 940c 0f63 	JMP _0x189
                 _0x188:
                 ; 0000 0404 								if (++Mode1Step >= 5) Mode1Step = 4;	// 복귀
000f53 91a0 0a3c 	LDS  R26,_Mode1Step
000f55 5faf      	SUBI R26,-LOW(1)
000f56 93a0 0a3c 	STS  _Mode1Step,R26
000f58 30a5      	CPI  R26,LOW(0x5)
000f59 f410      	BRSH PC+3
000f5a 940c 0f5f 	JMP _0x18A
000f5c e0e4      	LDI  R30,LOW(4)
000f5d 93e0 0a3c 	STS  _Mode1Step,R30
                 ; 0000 0405 								bMenuDisplay = 1;
                 _0x18A:
000f5f e0e1      	LDI  R30,LOW(1)
000f60 93e0 0a2a 	STS  _bMenuDisplay,R30
                 ; 0000 0406 								break;
000f62 c025      	RJMP _0x17B
                 ; 0000 0407 							case MODE2_PRESSURE_SET:
                 _0x189:
000f63 30e5      	CPI  R30,LOW(0x5)
000f64 f011      	BREQ PC+3
000f65 940c 0f76 	JMP _0x18B
                 ; 0000 0408 								if (++SetData > PRESSURE_MAX_) SetData--;
000f67 940e 224f 	CALL SUBOPT_0x5A
000f69 940e 2254 	CALL SUBOPT_0x5B
000f6b f410      	BRSH PC+3
000f6c 940c 0f72 	JMP _0x18C
000f6e 940e 224f 	CALL SUBOPT_0x5A
000f70 940e 225b 	CALL SUBOPT_0x5C
                 ; 0000 0409 								bVarDisplay = 1;
                 _0x18C:
000f72 e0e1      	LDI  R30,LOW(1)
000f73 93e0 0a2b 	STS  _bVarDisplay,R30
                 ; 0000 040A 								break;
000f75 c012      	RJMP _0x17B
                 ; 0000 040B 							case MODE2_PRESSURE_DELAY_SET:	// Pressure Time
                 _0x18B:
000f76 30e6      	CPI  R30,LOW(0x6)
000f77 f011      	BREQ PC+3
000f78 940c 0f88 	JMP _0x17B
                 ; 0000 040C 								if (++SetData > PRESSURE_TIME_MAX) SetData--;
000f7a 940e 224f 	CALL SUBOPT_0x5A
000f7c 940e 2260 	CALL SUBOPT_0x5D
000f7e f410      	BRSH PC+3
000f7f 940c 0f85 	JMP _0x18E
000f81 940e 224f 	CALL SUBOPT_0x5A
000f83 940e 225b 	CALL SUBOPT_0x5C
                 ; 0000 040D 								bVarDisplay = 1;
                 _0x18E:
000f85 e0e1      	LDI  R30,LOW(1)
000f86 93e0 0a2b 	STS  _bVarDisplay,R30
                 ; 0000 040E 								break;
                 ; 0000 040F 						}
                 _0x17B:
                 ; 0000 0410 					} else{
000f88 c027      	RJMP _0x18F
                 _0x178:
                 ; 0000 0411 						switch(HiddenStep)
000f89 91e0 0a3e 	LDS  R30,_HiddenStep
                 ; 0000 0412 						{
                 ; 0000 0413 						case HIDDEN1_STEP:				// 압착 Step Set
000f8b 30e1      	CPI  R30,LOW(0x1)
000f8c f011      	BREQ PC+3
000f8d 940c 0f9e 	JMP _0x193
                 ; 0000 0414 							if (++Hidden1SetData > PRESSURE_STEP_MAX) Hidden1SetData--;
000f8f 940e 227b 	CALL SUBOPT_0x60
000f91 940e 2280 	CALL SUBOPT_0x61
000f93 f410      	BRSH PC+3
000f94 940c 0f9a 	JMP _0x194
000f96 940e 227b 	CALL SUBOPT_0x60
000f98 940e 225b 	CALL SUBOPT_0x5C
                 ; 0000 0415 							bVarDisplay = 1;
                 _0x194:
000f9a e0e1      	LDI  R30,LOW(1)
000f9b 93e0 0a2b 	STS  _bVarDisplay,R30
                 ; 0000 0416 							break;
000f9d c012      	RJMP _0x192
                 ; 0000 0417 						case HIDDEN1_STEP_DELAY:		// 압착 Step Delay Set
                 _0x193:
000f9e 30e2      	CPI  R30,LOW(0x2)
000f9f f011      	BREQ PC+3
000fa0 940c 0fb0 	JMP _0x192
                 ; 0000 0418 							if (++Hidden1SetData > PRESSURE_STEP_DELAY_MAX) Hidden1SetData--;
000fa2 940e 227b 	CALL SUBOPT_0x60
000fa4 940e 2280 	CALL SUBOPT_0x61
000fa6 f410      	BRSH PC+3
000fa7 940c 0fad 	JMP _0x196
000fa9 940e 227b 	CALL SUBOPT_0x60
000fab 940e 225b 	CALL SUBOPT_0x5C
                 ; 0000 0419 							bVarDisplay = 1;
                 _0x196:
000fad e0e1      	LDI  R30,LOW(1)
000fae 93e0 0a2b 	STS  _bVarDisplay,R30
                 ; 0000 041A 							break;
                 ; 0000 041B 						}
                 _0x192:
                 ; 0000 041C 					}
                 _0x18F:
                 ; 0000 041D                     SetBuzzer(0, 0);
000fb0 940e 205b 	CALL SUBOPT_0x1C
000fb2 940e 04ad 	CALL _SetBuzzer
                 ; 0000 041E                     break;
000fb4 c0d1      	RJMP _0x154
                 ; 0000 041F 
                 ; 0000 0420 				case KEY_DOWN:
                 _0x177:
000fb5 32e0      	CPI  R30,LOW(0x20)
000fb6 f011      	BREQ PC+3
000fb7 940c 1061 	JMP _0x197
                 ; 0000 0421 					if (!HiddenStep)
000fb9 91e0 0a3e 	LDS  R30,_HiddenStep
000fbb 30e0      	CPI  R30,0
000fbc f011      	BREQ PC+3
000fbd 940c 1035 	JMP _0x198
                 ; 0000 0422 					{
                 ; 0000 0423 						switch(Mode1Step)
000fbf 91e0 0a3c 	LDS  R30,_Mode1Step
                 ; 0000 0424 						{
                 ; 0000 0425 							case MODE1_NOMAL:
000fc1 30e0      	CPI  R30,0
000fc2 f011      	BREQ PC+3
000fc3 940c 0fee 	JMP _0x19C
                 ; 0000 0426 								if (!bAutoMode && !bCylYDown)
000fc5 91e0 0a24 	LDS  R30,_bAutoMode
000fc7 30e0      	CPI  R30,0
000fc8 f011      	BREQ PC+3
000fc9 940c 0fd2 	JMP _0x19E
000fcb 91e0 0a26 	LDS  R30,_bCylYDown
000fcd 30e0      	CPI  R30,0
000fce f011      	BREQ PC+3
000fcf 940c 0fd2 	JMP _0x19E
000fd1 c001      	RJMP _0x19F
                 _0x19E:
000fd2 c01a      	RJMP _0x19D
                 _0x19F:
                 ; 0000 0427 								{
                 ; 0000 0428 									SetItv(PRESSURE_NOMAL);     // 15.01.27 기구적 실린더 동작 문제로 2.0k로 고정
000fd3 940e 1fde 	CALL SUBOPT_0xB
                 ; 0000 0429 									if (Sensor & CYL_Y_UP_SENSOR)
000fd5 91e0 0b92 	LDS  R30,_Sensor
000fd7 70e4      	ANDI R30,LOW(0x4)
000fd8 f411      	BRNE PC+3
000fd9 940c 0fea 	JMP _0x1A0
                 ; 0000 042A 									{
                 ; 0000 042B 										bCylXIn = !bCylXIn;
000fdb 91e0 0a25 	LDS  R30,_bCylXIn
000fdd 940e 260f 	CALL __LNEGB1
000fdf 93e0 0a25 	STS  _bCylXIn,R30
                 ; 0000 042C 										if (bCylXIn) CYL_X_IN;
000fe1 30e0      	CPI  R30,0
000fe2 f411      	BRNE PC+3
000fe3 940c 0fe8 	JMP _0x1A1
000fe5 940e 201d 	CALL SUBOPT_0x14
                 ; 0000 042D 										else CYL_X_OUT;
000fe7 c002      	RJMP _0x1A2
                 _0x1A1:
000fe8 940e 20a7 	CALL SUBOPT_0x27
                 ; 0000 042E 									}
                 _0x1A2:
                 ; 0000 042F 									bVarDisplay = 1;
                 _0x1A0:
000fea e0e1      	LDI  R30,LOW(1)
000feb 93e0 0a2b 	STS  _bVarDisplay,R30
                 ; 0000 0430 								}
                 ; 0000 0431 								break;
                 _0x19D:
000fed c046      	RJMP _0x19B
                 ; 0000 0432 							case MODE1_OCTA:
                 _0x19C:
000fee 30e1      	CPI  R30,LOW(0x1)
000fef f011      	BREQ PC+3
000ff0 940c 0ff3 	JMP _0x1A3
                 ; 0000 0433 							case MODE1_TAPE:
000ff2 c004      	RJMP _0x1A4
                 _0x1A3:
000ff3 30e2      	CPI  R30,LOW(0x2)
000ff4 f011      	BREQ PC+3
000ff5 940c 0ff8 	JMP _0x1A5
                 _0x1A4:
                 ; 0000 0434 							case MODE1_BATTERY:
000ff7 c004      	RJMP _0x1A6
                 _0x1A5:
000ff8 30e3      	CPI  R30,LOW(0x3)
000ff9 f011      	BREQ PC+3
000ffa 940c 0ffd 	JMP _0x1A7
                 _0x1A6:
                 ; 0000 0435 							case MODE1_ETC:
000ffc c004      	RJMP _0x1A8
                 _0x1A7:
000ffd 30e4      	CPI  R30,LOW(0x4)
000ffe f011      	BREQ PC+3
000fff 940c 1011 	JMP _0x1A9
                 _0x1A8:
                 ; 0000 0436 								if (--Mode1Step <= 0) Mode1Step = 1;	// 복귀
001001 91a0 0a3c 	LDS  R26,_Mode1Step
001003 50a1      	SUBI R26,LOW(1)
001004 93a0 0a3c 	STS  _Mode1Step,R26
001006 30a0      	CPI  R26,0
001007 f011      	BREQ PC+3
001008 940c 100d 	JMP _0x1AA
00100a e0e1      	LDI  R30,LOW(1)
00100b 93e0 0a3c 	STS  _Mode1Step,R30
                 ; 0000 0437 								bMenuDisplay = 1;
                 _0x1AA:
00100d e0e1      	LDI  R30,LOW(1)
00100e 93e0 0a2a 	STS  _bMenuDisplay,R30
                 ; 0000 0438 								break;
001010 c023      	RJMP _0x19B
                 ; 0000 0439 							case MODE2_PRESSURE_SET:
                 _0x1A9:
001011 30e5      	CPI  R30,LOW(0x5)
001012 f011      	BREQ PC+3
001013 940c 1023 	JMP _0x1AB
                 ; 0000 043A 								if (SetData > PRESSURE_MIN) SetData--;
001015 940e 2290 	CALL SUBOPT_0x64
001017 f010      	BRLO PC+3
001018 940c 101f 	JMP _0x1AC
00101a 940e 224f 	CALL SUBOPT_0x5A
00101c 9731      	SBIW R30,1
00101d 93fe      	ST   -X,R31
00101e 93ee      	ST   -X,R30
                 ; 0000 043B 								bVarDisplay = 1;
                 _0x1AC:
00101f e0e1      	LDI  R30,LOW(1)
001020 93e0 0a2b 	STS  _bVarDisplay,R30
                 ; 0000 043C 								break;
001022 c011      	RJMP _0x19B
                 ; 0000 043D 							case MODE2_PRESSURE_DELAY_SET:	// Pressure Time
                 _0x1AB:
001023 30e6      	CPI  R30,LOW(0x6)
001024 f011      	BREQ PC+3
001025 940c 1034 	JMP _0x19B
                 ; 0000 043E 								if (SetData > PRESSURE_TIME_MIN) SetData--;
001027 940e 2290 	CALL SUBOPT_0x64
001029 f010      	BRLO PC+3
00102a 940c 1031 	JMP _0x1AE
00102c 940e 224f 	CALL SUBOPT_0x5A
00102e 9731      	SBIW R30,1
00102f 93fe      	ST   -X,R31
001030 93ee      	ST   -X,R30
                 ; 0000 043F 								bVarDisplay = 1;
                 _0x1AE:
001031 e0e1      	LDI  R30,LOW(1)
001032 93e0 0a2b 	STS  _bVarDisplay,R30
                 ; 0000 0440 								break;
                 ; 0000 0441 						}
                 _0x19B:
                 ; 0000 0442 					} else{
001034 c027      	RJMP _0x1AF
                 _0x198:
                 ; 0000 0443 						switch(HiddenStep)
001035 91e0 0a3e 	LDS  R30,_HiddenStep
                 ; 0000 0444 						{
                 ; 0000 0445 						case HIDDEN1_STEP:				// 압착 Step Set
001037 30e1      	CPI  R30,LOW(0x1)
001038 f011      	BREQ PC+3
001039 940c 104a 	JMP _0x1B3
                 ; 0000 0446 							if (Hidden1SetData > PRESSURE_STEP_MIN) Hidden1SetData--;
00103b 940e 2295 	CALL SUBOPT_0x65
00103d 9713      	SBIW R26,3
00103e f410      	BRSH PC+3
00103f 940c 1046 	JMP _0x1B4
001041 940e 227b 	CALL SUBOPT_0x60
001043 9731      	SBIW R30,1
001044 93fe      	ST   -X,R31
001045 93ee      	ST   -X,R30
                 ; 0000 0447 							bVarDisplay = 1;
                 _0x1B4:
001046 e0e1      	LDI  R30,LOW(1)
001047 93e0 0a2b 	STS  _bVarDisplay,R30
                 ; 0000 0448 							break;
001049 c012      	RJMP _0x1B2
                 ; 0000 0449 						case HIDDEN1_STEP_DELAY:		// 압착 Step Delay Set
                 _0x1B3:
00104a 30e2      	CPI  R30,LOW(0x2)
00104b f011      	BREQ PC+3
00104c 940c 105c 	JMP _0x1B2
                 ; 0000 044A 							if (Hidden1SetData > PRESSURE_STEP_DELAY_MIN) Hidden1SetData--;
00104e 940e 2295 	CALL SUBOPT_0x65
001050 9712      	SBIW R26,2
001051 f410      	BRSH PC+3
001052 940c 1059 	JMP _0x1B6
001054 940e 227b 	CALL SUBOPT_0x60
001056 9731      	SBIW R30,1
001057 93fe      	ST   -X,R31
001058 93ee      	ST   -X,R30
                 ; 0000 044B 							bVarDisplay = 1;
                 _0x1B6:
001059 e0e1      	LDI  R30,LOW(1)
00105a 93e0 0a2b 	STS  _bVarDisplay,R30
                 ; 0000 044C 							break;
                 ; 0000 044D 						}
                 _0x1B2:
                 ; 0000 044E 					}
                 _0x1AF:
                 ; 0000 044F                     SetBuzzer(0, 0);
00105c 940e 205b 	CALL SUBOPT_0x1C
00105e 940e 04ad 	CALL _SetBuzzer
                 ; 0000 0450                     break;
001060 c025      	RJMP _0x154
                 ; 0000 0451 				case KEY_FN:
                 _0x197:
001061 34e0      	CPI  R30,LOW(0x40)
001062 f011      	BREQ PC+3
001063 940c 1086 	JMP _0x154
                 ; 0000 0452                     if (bCalib && CalibStep >= 10)
001065 91e0 0a1a 	LDS  R30,_bCalib
001067 30e0      	CPI  R30,0
001068 f411      	BRNE PC+3
001069 940c 1072 	JMP _0x1B9
00106b 91a0 0a1c 	LDS  R26,_CalibStep
00106d 30aa      	CPI  R26,LOW(0xA)
00106e f410      	BRSH PC+3
00106f 940c 1072 	JMP _0x1B9
001071 c001      	RJMP _0x1BA
                 _0x1B9:
001072 c00c      	RJMP _0x1B8
                 _0x1BA:
                 ; 0000 0453                     {
                 ; 0000 0454                         if (++CalibStep >= 12) CalibStep = 10;
001073 91a0 0a1c 	LDS  R26,_CalibStep
001075 5faf      	SUBI R26,-LOW(1)
001076 93a0 0a1c 	STS  _CalibStep,R26
001078 30ac      	CPI  R26,LOW(0xC)
001079 f410      	BRSH PC+3
00107a 940c 107f 	JMP _0x1BB
00107c e0ea      	LDI  R30,LOW(10)
00107d 93e0 0a1c 	STS  _CalibStep,R30
                 ; 0000 0455                     }
                 _0x1BB:
                 ; 0000 0456                     SetBuzzer(0, 0);
                 _0x1B8:
00107f 940e 205b 	CALL SUBOPT_0x1C
001081 940e 04ad 	CALL _SetBuzzer
                 ; 0000 0457                     bMenuDisplay = 1;
001083 e0e1      	LDI  R30,LOW(1)
001084 93e0 0a2a 	STS  _bMenuDisplay,R30
                 ; 0000 0458                 	break;
                 ; 0000 0459 
                 ; 0000 045A                 }
                 _0x154:
                 ; 0000 045B         	}else {	// Long Key
001086 c101      	RJMP _0x1BC
                 _0x151:
                 ; 0000 045C                	switch(PrevDownKey)
001087 91e0 0b9e 	LDS  R30,_PrevDownKey_S0000004
                 ; 0000 045D                 {
                 ; 0000 045E 				case KEY_MENU:	// 압력/시간
001089 30e2      	CPI  R30,LOW(0x2)
00108a f011      	BREQ PC+3
00108b 940c 10a9 	JMP _0x1C0
                 ; 0000 045F 					if (!HiddenStep)	// Hidden Mode가 아닐때만
00108d 91e0 0a3e 	LDS  R30,_HiddenStep
00108f 30e0      	CPI  R30,0
001090 f011      	BREQ PC+3
001091 940c 10a8 	JMP _0x1C1
                 ; 0000 0460 					{
                 ; 0000 0461 						if (Mode1Step)
001093 91e0 0a3c 	LDS  R30,_Mode1Step
001095 30e0      	CPI  R30,0
001096 f411      	BRNE PC+3
001097 940c 109d 	JMP _0x1C2
                 ; 0000 0462 						{
                 ; 0000 0463 							Mode1Step = 0;
001099 e0e0      	LDI  R30,LOW(0)
00109a 93e0 0a3c 	STS  _Mode1Step,R30
                 ; 0000 0464 						}else {
00109c c003      	RJMP _0x1C3
                 _0x1C2:
                 ; 0000 0465 							Mode1Step = 1;
00109d e0e1      	LDI  R30,LOW(1)
00109e 93e0 0a3c 	STS  _Mode1Step,R30
                 ; 0000 0466 						}
                 _0x1C3:
                 ; 0000 0467 						SetData = Pressure;
0010a0 940e 2370 	CALL SUBOPT_0x80
0010a2 940e 224a 	CALL SUBOPT_0x59
                 ; 0000 0468 						bMenuDisplay = 1;
0010a4 940e 2375 	CALL SUBOPT_0x81
                 ; 0000 0469 						SetBuzzer(0, 1);
0010a6 940e 04ad 	CALL _SetBuzzer
                 ; 0000 046A 					}
                 ; 0000 046B                     break;
                 _0x1C1:
0010a8 c0df      	RJMP _0x1BF
                 ; 0000 046C 
                 ; 0000 046D 				case KEY_MODE:	// 자동/수동
                 _0x1C0:
0010a9 30e4      	CPI  R30,LOW(0x4)
0010aa f011      	BREQ PC+3
0010ab 940c 10f3 	JMP _0x1C4
                 ; 0000 046E                 	if (!bRun && Mode1Step == 0 && !HiddenStep)
0010ad 91e0 0a2d 	LDS  R30,_bRun
0010af 30e0      	CPI  R30,0
0010b0 f011      	BREQ PC+3
0010b1 940c 10c0 	JMP _0x1C6
0010b3 91a0 0a3c 	LDS  R26,_Mode1Step
0010b5 30a0      	CPI  R26,LOW(0x0)
0010b6 f011      	BREQ PC+3
0010b7 940c 10c0 	JMP _0x1C6
0010b9 91e0 0a3e 	LDS  R30,_HiddenStep
0010bb 30e0      	CPI  R30,0
0010bc f011      	BREQ PC+3
0010bd 940c 10c0 	JMP _0x1C6
0010bf c001      	RJMP _0x1C7
                 _0x1C6:
0010c0 c02d      	RJMP _0x1C5
                 _0x1C7:
                 ; 0000 046F                     {
                 ; 0000 0470 						if (++bAutoMode >= 3) bAutoMode = 0;
0010c1 91a0 0a24 	LDS  R26,_bAutoMode
0010c3 5faf      	SUBI R26,-LOW(1)
0010c4 93a0 0a24 	STS  _bAutoMode,R26
0010c6 30a3      	CPI  R26,LOW(0x3)
0010c7 f410      	BRSH PC+3
0010c8 940c 10cd 	JMP _0x1C8
0010ca e0e0      	LDI  R30,LOW(0)
0010cb 93e0 0a24 	STS  _bAutoMode,R30
                 ; 0000 0471 						if (bAutoMode == 1) bAutoMode = 2;		// 15.04.02 SIS 이원욱D 요청으로 AutoMode 삭제
                 _0x1C8:
0010cd 91a0 0a24 	LDS  R26,_bAutoMode
0010cf 30a1      	CPI  R26,LOW(0x1)
0010d0 f011      	BREQ PC+3
0010d1 940c 10d6 	JMP _0x1C9
0010d3 e0e2      	LDI  R30,LOW(2)
0010d4 93e0 0a24 	STS  _bAutoMode,R30
                 ; 0000 0472                         bMenuDisplay = 1;
                 _0x1C9:
0010d6 e0e1      	LDI  R30,LOW(1)
0010d7 93e0 0a2a 	STS  _bMenuDisplay,R30
                 ; 0000 0473 						bAgingMode = 0;
0010d9 e0e0      	LDI  R30,LOW(0)
0010da 93e0 0a22 	STS  _bAgingMode,R30
                 ; 0000 0474 						SetEeprom2(4, bAutoMode);
0010dc 940e 2379 	CALL SUBOPT_0x82
                 ; 0000 0475 						if (bAutoMode) mRunStepTime = 0;
0010de 91e0 0a24 	LDS  R30,_bAutoMode
0010e0 30e0      	CPI  R30,0
0010e1 f411      	BRNE PC+3
0010e2 940c 10ee 	JMP _0x1CA
0010e4 940e 1fe4 	CALL SUBOPT_0xC
0010e6 93e0 0a37 	STS  _mRunStepTime,R30
0010e8 93f0 0a38 	STS  _mRunStepTime+1,R31
0010ea 9360 0a39 	STS  _mRunStepTime+2,R22
0010ec 9370 0a3a 	STS  _mRunStepTime+3,R23
                 ; 0000 0476                     }
                 _0x1CA:
                 ; 0000 0477                     SetBuzzer(0, 1);
                 _0x1C5:
0010ee 940e 2079 	CALL SUBOPT_0x20
0010f0 940e 04ad 	CALL _SetBuzzer
                 ; 0000 0478 					break;
0010f2 c095      	RJMP _0x1BF
                 ; 0000 0479 				case KEY_ENTER:
                 _0x1C4:
0010f3 30e8      	CPI  R30,LOW(0x8)
0010f4 f011      	BREQ PC+3
0010f5 940c 10f8 	JMP _0x1CB
                 ; 0000 047A                 	break;
0010f7 c090      	RJMP _0x1BF
                 ; 0000 047B 				case KEY_UP:
                 _0x1CB:
0010f8 31e0      	CPI  R30,LOW(0x10)
0010f9 f011      	BREQ PC+3
0010fa 940c 10fd 	JMP _0x1CC
                 ; 0000 047C                     break;
0010fc c08b      	RJMP _0x1BF
                 ; 0000 047D                 case KEY_DOWN:
                 _0x1CC:
0010fd 32e0      	CPI  R30,LOW(0x20)
0010fe f011      	BREQ PC+3
0010ff 940c 1102 	JMP _0x1CD
                 ; 0000 047E                 	break;
001101 c086      	RJMP _0x1BF
                 ; 0000 047F 				case KEY_FN:
                 _0x1CD:
001102 34e0      	CPI  R30,LOW(0x40)
001103 f011      	BREQ PC+3
001104 940c 111b 	JMP _0x1CE
                 ; 0000 0480                 	if (TestMode)
001106 91e0 0a21 	LDS  R30,_TestMode
001108 30e0      	CPI  R30,0
001109 f411      	BRNE PC+3
00110a 940c 111a 	JMP _0x1CF
                 ; 0000 0481                     {
                 ; 0000 0482                 		bCalib = 1;
00110c e0e1      	LDI  R30,LOW(1)
00110d 93e0 0a1a 	STS  _bCalib,R30
                 ; 0000 0483                         CalibStep = 0;
00110f e0e0      	LDI  R30,LOW(0)
001110 93e0 0a1c 	STS  _CalibStep,R30
                 ; 0000 0484                         CalibStepDelay = 100;
                +
001112 e6e4     +LDI R30 , LOW ( 0x64 )
001113 e0f0     +LDI R31 , HIGH ( 0x64 )
001114 e060     +LDI R22 , BYTE3 ( 0x64 )
001115 e070     +LDI R23 , BYTE4 ( 0x64 )
                 	__GETD1N 0x64
001116 940e 2380 	CALL SUBOPT_0x83
                 ; 0000 0485 	                    SetBuzzer(1, 0);
001118 940e 2389 	CALL SUBOPT_0x84
                 ; 0000 0486                     }
                 ; 0000 0487                 	break;
                 _0x1CF:
00111a c06d      	RJMP _0x1BF
                 ; 0000 0488 				case KEY_FN | KEY_ENTER:
                 _0x1CE:
00111b 34e8      	CPI  R30,LOW(0x48)
00111c f011      	BREQ PC+3
00111d 940c 113b 	JMP _0x1D0
                 ; 0000 0489 					if (!bRun && Mode1Step == 0)
00111f 91e0 0a2d 	LDS  R30,_bRun
001121 30e0      	CPI  R30,0
001122 f011      	BREQ PC+3
001123 940c 112c 	JMP _0x1D2
001125 91a0 0a3c 	LDS  R26,_Mode1Step
001127 30a0      	CPI  R26,LOW(0x0)
001128 f011      	BREQ PC+3
001129 940c 112c 	JMP _0x1D2
00112b c001      	RJMP _0x1D3
                 _0x1D2:
00112c c009      	RJMP _0x1D1
                 _0x1D3:
                 ; 0000 048A 					{
                 ; 0000 048B 						bAgingMode = !bAgingMode;
00112d 91e0 0a22 	LDS  R30,_bAgingMode
00112f 940e 260f 	CALL __LNEGB1
001131 93e0 0a22 	STS  _bAgingMode,R30
                 ; 0000 048C 						bMenuDisplay = 1;
001133 e0e1      	LDI  R30,LOW(1)
001134 93e0 0a2a 	STS  _bMenuDisplay,R30
                 ; 0000 048D 						// bAutoMode = 0;
                 ; 0000 048E 					}
                 ; 0000 048F 					SetBuzzer(0, 1);
                 _0x1D1:
001136 940e 2079 	CALL SUBOPT_0x20
001138 940e 04ad 	CALL _SetBuzzer
                 ; 0000 0490 					break;
00113a c04d      	RJMP _0x1BF
                 ; 0000 0491 
                 ; 0000 0492                 case KEY_UP | KEY_DOWN:
                 _0x1D0:
00113b 33e0      	CPI  R30,LOW(0x30)
00113c f011      	BREQ PC+3
00113d 940c 114e 	JMP _0x1D4
                 ; 0000 0493                 	TestMode = !TestMode;
00113f 91e0 0a21 	LDS  R30,_TestMode
001141 940e 260f 	CALL __LNEGB1
001143 93e0 0a21 	STS  _TestMode,R30
                 ; 0000 0494                     bCalib = 0;
001145 e0e0      	LDI  R30,LOW(0)
001146 93e0 0a1a 	STS  _bCalib,R30
                 ; 0000 0495                     bMenuDisplay = 1;
001148 e0e1      	LDI  R30,LOW(1)
001149 93e0 0a2a 	STS  _bMenuDisplay,R30
                 ; 0000 0496                     SetBuzzer(1, 0);
00114b 940e 2389 	CALL SUBOPT_0x84
                 ; 0000 0497                     break;
00114d c03a      	RJMP _0x1BF
                 ; 0000 0498 
                 ; 0000 0499                 case KEY_FN | KEY_MENU: // 교정모드 키
                 _0x1D4:
00114e 34e2      	CPI  R30,LOW(0x42)
00114f f011      	BREQ PC+3
001150 940c 116a 	JMP _0x1D5
                 ; 0000 049A                     bCalib = !bCalib;
001152 91e0 0a1a 	LDS  R30,_bCalib
001154 940e 260f 	CALL __LNEGB1
001156 93e0 0a1a 	STS  _bCalib,R30
                 ; 0000 049B 					bMenuDisplay = 1;
001158 e0e1      	LDI  R30,LOW(1)
001159 93e0 0a2a 	STS  _bMenuDisplay,R30
                 ; 0000 049C 
                 ; 0000 049D                     if (bCalib)
00115b 91e0 0a1a 	LDS  R30,_bCalib
00115d 30e0      	CPI  R30,0
00115e f411      	BRNE PC+3
00115f 940c 1165 	JMP _0x1D6
                 ; 0000 049E                     {
                 ; 0000 049F                         CalibStep = 10;
001161 e0ea      	LDI  R30,LOW(10)
001162 93e0 0a1c 	STS  _CalibStep,R30
                 ; 0000 04A0                     }else {
001164 c002      	RJMP _0x1D7
                 _0x1D6:
                 ; 0000 04A1                         SetItv(Pressure);
001165 940e 202c 	CALL SUBOPT_0x16
                 ; 0000 04A2                     }
                 _0x1D7:
                 ; 0000 04A3                     SetBuzzer(1, 0);
001167 940e 2389 	CALL SUBOPT_0x84
                 ; 0000 04A4                     break;
001169 c01e      	RJMP _0x1BF
                 ; 0000 04A5 
                 ; 0000 04A6 				case KEY_FN | KEY_MODE:	// Hidden Mode 1 진입
                 _0x1D5:
00116a 34e4      	CPI  R30,LOW(0x44)
00116b f011      	BREQ PC+3
00116c 940c 1188 	JMP _0x1BF
                 ; 0000 04A7                 	if (!bRun && Mode1Step == 0)	// Mode 1 진입했을때만 구동
00116e 91e0 0a2d 	LDS  R30,_bRun
001170 30e0      	CPI  R30,0
001171 f011      	BREQ PC+3
001172 940c 117b 	JMP _0x1DA
001174 91a0 0a3c 	LDS  R26,_Mode1Step
001176 30a0      	CPI  R26,LOW(0x0)
001177 f011      	BREQ PC+3
001178 940c 117b 	JMP _0x1DA
00117a c001      	RJMP _0x1DB
                 _0x1DA:
00117b c00c      	RJMP _0x1D9
                 _0x1DB:
                 ; 0000 04A8 					{
                 ; 0000 04A9 						HiddenStep = !HiddenStep;
00117c 91e0 0a3e 	LDS  R30,_HiddenStep
00117e 940e 260f 	CALL __LNEGB1
001180 940e 22dc 	CALL SUBOPT_0x6F
                 ; 0000 04AA 						Hidden1SetData = PressureStep;
001182 940e 22a2 	CALL SUBOPT_0x67
                 ; 0000 04AB 						bMenuDisplay = 1;
001184 940e 2375 	CALL SUBOPT_0x81
                 ; 0000 04AC 						SetBuzzer(0, 1);
001186 940e 04ad 	CALL _SetBuzzer
                 ; 0000 04AD 					}
                 ; 0000 04AE                     break;
                 _0x1D9:
                 ; 0000 04AF                 }
                 _0x1BF:
                 ; 0000 04B0             }
                 _0x1BC:
                 ; 0000 04B1         }else {
001188 c023      	RJMP _0x1DC
                 _0x150:
                 ; 0000 04B2 			if (SetupExitTime && Mode1Step)
001189 91e0 0a3f 	LDS  R30,_SetupExitTime
00118b 91f0 0a40 	LDS  R31,_SetupExitTime+1
00118d 9730      	SBIW R30,0
00118e f411      	BRNE PC+3
00118f 940c 1198 	JMP _0x1DE
001191 91e0 0a3c 	LDS  R30,_Mode1Step
001193 30e0      	CPI  R30,0
001194 f411      	BRNE PC+3
001195 940c 1198 	JMP _0x1DE
001197 c001      	RJMP _0x1DF
                 _0x1DE:
001198 c013      	RJMP _0x1DD
                 _0x1DF:
                 ; 0000 04B3             {
                 ; 0000 04B4             	SetupExitTime--;
001199 e3af      	LDI  R26,LOW(_SetupExitTime)
00119a e0ba      	LDI  R27,HIGH(_SetupExitTime)
00119b 940e 238f 	CALL SUBOPT_0x85
                 ; 0000 04B5                 if (SetupExitTime == 0)
00119d 91e0 0a3f 	LDS  R30,_SetupExitTime
00119f 91f0 0a40 	LDS  R31,_SetupExitTime+1
0011a1 9730      	SBIW R30,0
0011a2 f011      	BREQ PC+3
0011a3 940c 11ac 	JMP _0x1E0
                 ; 0000 04B6                 {
                 ; 0000 04B7                 	Mode1Step = 0;
0011a5 e0e0      	LDI  R30,LOW(0)
0011a6 93e0 0a3c 	STS  _Mode1Step,R30
                 ; 0000 04B8                     bMenuDisplay = 1;
0011a8 940e 2375 	CALL SUBOPT_0x81
                 ; 0000 04B9                     SetBuzzer(0, 1);
0011aa 940e 04ad 	CALL _SetBuzzer
                 ; 0000 04BA                 }
                 ; 0000 04BB             }
                 _0x1E0:
                 ; 0000 04BC         }
                 _0x1DD:
                 _0x1DC:
                 ; 0000 04BD 		bLongKey = 0;
0011ac e0e0      	LDI  R30,LOW(0)
0011ad 93e0 0a1b 	STS  _bLongKey,R30
                 ; 0000 04BE     	KeyDownCount = 0;
0011af 93e0 0b9d 	STS  _KeyDownCount_S0000004,R30
                 ; 0000 04BF 		PrevDownKey = 0;
0011b1 93e0 0b9e 	STS  _PrevDownKey_S0000004,R30
                 ; 0000 04C0     }
                 _0x14F:
                 ; 0000 04C1 }
0011b3 9508      	RET
                 ;
                 ;/*
                 ;void StepPressureSubroutine(void)
                 ;{
                 ;	int r = 0;
                 ;	if (RunStep == RUN_CYL_DOWN)
                 ;	{
                 ;		if (Sensor & CYL_Y_DOWN_SENSOR)
                 ;		{
                 ;			if (PressureStepDelay)
                 ;			{
                 ;				PressureStepDelay--;
                 ;			} else{
                 ;				r = Pressure - DownPressure;
                 ;				if(r < 0) r = 0;
                 ;
                 ;				if (r >= 20)
                 ;				{
                 ;					SetItv(DownPressure+=20);
                 ;				}
                 ;
                 ;				if (r < 20)
                 ;				{
                 ;					DownPressure = Pressure;
                 ;					SetItv(Pressure);
                 ;					bDownPressureEnd = 1;
                 ;					DownPressure = 0;
                 ;				}
                 ;				PressureStepDelay = 1;
                 ;			}
                 ;		}
                 ;	}
                 ;}
                 ;*/
                 ;
                 ;void StepPressureSubroutine(void)
                 ; 0000 04E6 {
                 _StepPressureSubroutine:
                 ; 0000 04E7 	unsigned int DownPressureStep = Pressure / PressureStep;
                 ; 0000 04E8 
                 ; 0000 04E9 	if (RunStep == RUN_CYL_DOWN && !bEmoState && !bReturnSensor && !bDownPressureEnd)
0011b4 931a      	ST   -Y,R17
0011b5 930a      	ST   -Y,R16
                 ;	DownPressureStep -> R16,R17
0011b6 91e0 0a0a 	LDS  R30,_PressureStep
0011b8 91f0 0a0b 	LDS  R31,_PressureStep+1
0011ba 940e 2395 	CALL SUBOPT_0x86
0011bc 2766      	CLR  R22
0011bd 2777      	CLR  R23
0011be 940e 2662 	CALL __DIVD21U
0011c0 018f      	MOVW R16,R30
0011c1 91a0 0a2e 	LDS  R26,_RunStep
0011c3 30a5      	CPI  R26,LOW(0x5)
0011c4 f011      	BREQ PC+3
0011c5 940c 11da 	JMP _0x1E2
0011c7 91e0 0a55 	LDS  R30,_bEmoState
0011c9 30e0      	CPI  R30,0
0011ca f011      	BREQ PC+3
0011cb 940c 11da 	JMP _0x1E2
0011cd 91e0 0a18 	LDS  R30,_bReturnSensor
0011cf 30e0      	CPI  R30,0
0011d0 f011      	BREQ PC+3
0011d1 940c 11da 	JMP _0x1E2
0011d3 91e0 0a56 	LDS  R30,_bDownPressureEnd
0011d5 30e0      	CPI  R30,0
0011d6 f011      	BREQ PC+3
0011d7 940c 11da 	JMP _0x1E2
0011d9 c001      	RJMP _0x1E3
                 _0x1E2:
0011da c04a      	RJMP _0x1E1
                 _0x1E3:
                 ; 0000 04EA 	{
                 ; 0000 04EB 		if (Sensor & CYL_Y_DOWN_SENSOR)
0011db 91e0 0b92 	LDS  R30,_Sensor
0011dd 70e8      	ANDI R30,LOW(0x8)
0011de f411      	BRNE PC+3
0011df 940c 1225 	JMP _0x1E4
                 ; 0000 04EC 		{
                 ; 0000 04ED 			if (PressureStepDelay)
0011e1 91e0 0a0c 	LDS  R30,_PressureStepDelay
0011e3 91f0 0a0d 	LDS  R31,_PressureStepDelay+1
0011e5 9730      	SBIW R30,0
0011e6 f411      	BRNE PC+3
0011e7 940c 11ee 	JMP _0x1E5
                 ; 0000 04EE 			{
                 ; 0000 04EF 				PressureStepDelay--;
0011e9 e0ac      	LDI  R26,LOW(_PressureStepDelay)
0011ea e0ba      	LDI  R27,HIGH(_PressureStepDelay)
0011eb 940e 238f 	CALL SUBOPT_0x85
                 ; 0000 04F0 			} else{
0011ed c037      	RJMP _0x1E6
                 _0x1E5:
                 ; 0000 04F1 				if (DownPressure <= Pressure)
0011ee 940e 239e 	CALL SUBOPT_0x87
0011f0 940e 2881 	CALL __CPD12
0011f2 f410      	BRSH PC+3
0011f3 940c 1225 	JMP _0x1E7
                 ; 0000 04F2 				{
                 ; 0000 04F3 					DownPressure += DownPressureStep;
0011f5 01f8      	MOVW R30,R16
0011f6 91a0 0a53 	LDS  R26,_DownPressure
0011f8 91b0 0a54 	LDS  R27,_DownPressure+1
0011fa 0fea      	ADD  R30,R26
0011fb 1ffb      	ADC  R31,R27
0011fc 93e0 0a53 	STS  _DownPressure,R30
0011fe 93f0 0a54 	STS  _DownPressure+1,R31
                 ; 0000 04F4 					if (DownPressure >= Pressure) DownPressure = Pressure;
001200 940e 239e 	CALL SUBOPT_0x87
001202 940e 2886 	CALL __CPD21
001204 f410      	BRSH PC+3
001205 940c 120d 	JMP _0x1E8
001207 940e 2370 	CALL SUBOPT_0x80
001209 93e0 0a53 	STS  _DownPressure,R30
00120b 93f0 0a54 	STS  _DownPressure+1,R31
                 ; 0000 04F5 
                 ; 0000 04F6 					SetItv(DownPressure);
                 _0x1E8:
00120d 91e0 0a53 	LDS  R30,_DownPressure
00120f 91f0 0a54 	LDS  R31,_DownPressure+1
001211 940e 2028 	CALL SUBOPT_0x15
                 ; 0000 04F7 					//Lcdprintf(9, 3, "%d", DownPressure);
                 ; 0000 04F8 
                 ; 0000 04F9 					if (DownPressure >= Pressure)
001213 940e 239e 	CALL SUBOPT_0x87
001215 940e 2886 	CALL __CPD21
001217 f410      	BRSH PC+3
001218 940c 121f 	JMP _0x1E9
                 ; 0000 04FA 					{
                 ; 0000 04FB 						bDownPressureEnd = 1;
00121a e0e1      	LDI  R30,LOW(1)
00121b 93e0 0a56 	STS  _bDownPressureEnd,R30
                 ; 0000 04FC 						DownPressure = 0;
00121d 940e 206d 	CALL SUBOPT_0x1E
                 ; 0000 04FD 					}
                 ; 0000 04FE 					PressureStepDelay = sPressureStepDelay;
                 _0x1E9:
00121f 940e 22c2 	CALL SUBOPT_0x6B
001221 93e0 0a0c 	STS  _PressureStepDelay,R30
001223 93f0 0a0d 	STS  _PressureStepDelay+1,R31
                 ; 0000 04FF 				}
                 ; 0000 0500 			}
                 _0x1E7:
                 _0x1E6:
                 ; 0000 0501 		}
                 ; 0000 0502 	}
                 _0x1E4:
                 ; 0000 0503 }
                 _0x1E1:
001225 9109      	LD   R16,Y+
001226 9119      	LD   R17,Y+
001227 9508      	RET
                 ;
                 ;void PressureRewardSubroutine(void)
                 ; 0000 0506 {
                 _PressureRewardSubroutine:
                 ; 0000 0507 	unsigned long GetPressure;
                 ; 0000 0508 
                 ; 0000 0509  	if (bPressureReward && RunStepTime >= 50)	// Step 압력 설정 후 딜레이 500 ms 뒤
001228 9724      	SBIW R28,4
                 ;	GetPressure -> Y+0
001229 91e0 0a57 	LDS  R30,_bPressureReward
00122b 30e0      	CPI  R30,0
00122c f411      	BRNE PC+3
00122d 940c 123c 	JMP _0x1EB
00122f 940e 23ad 	CALL SUBOPT_0x88
                +
001231 33a2     +CPI R26 , LOW ( 0x32 )
001232 e0e0     +LDI R30 , HIGH ( 0x32 )
001233 07be     +CPC R27 , R30
001234 e0e0     +LDI R30 , BYTE3 ( 0x32 )
001235 078e     +CPC R24 , R30
001236 e0e0     +LDI R30 , BYTE4 ( 0x32 )
001237 079e     +CPC R25 , R30
                 	__CPD2N 0x32
001238 f410      	BRSH PC+3
001239 940c 123c 	JMP _0x1EB
00123b c001      	RJMP _0x1EC
                 _0x1EB:
00123c c026      	RJMP _0x1EA
                 _0x1EC:
                 ; 0000 050A 	{
                 ; 0000 050B 		GetPressure = GetItv();
00123d 940e 23b6 	CALL SUBOPT_0x89
                 ; 0000 050C 		if ((Pressure - GetPressure) > 0) SetItv(Pressure + abs(Pressure - GetPressure));	// 양수
00123f 940e 23bd 	CALL SUBOPT_0x8A
001241 940e 25cc 	CALL __SUBD21
001243 940e 287b 	CALL __CPD02
001245 f010      	BRLO PC+3
001246 940c 1251 	JMP _0x1ED
001248 940e 23bd 	CALL SUBOPT_0x8A
00124a 940e 23c2 	CALL SUBOPT_0x8B
00124c 940e 25c2 	CALL __ADDD12
00124e 940e 2028 	CALL SUBOPT_0x15
                 ; 0000 050D 		else if ((Pressure - GetPressure) < 0) SetItv(Pressure - abs(Pressure - GetPressure));	// 음수
001250 c00f      	RJMP _0x1EE
                 _0x1ED:
001251 940e 23bd 	CALL SUBOPT_0x8A
001253 940e 25cc 	CALL __SUBD21
001255 c00a      	RJMP _0x1EF
001256 940e 23bd 	CALL SUBOPT_0x8A
001258 940e 23c2 	CALL SUBOPT_0x8B
00125a 940e 26bf 	CALL __SWAPD12
00125c 940e 25c7 	CALL __SUBD12
00125e 940e 2028 	CALL SUBOPT_0x15
                 ; 0000 050E 		//Lcdprintf(9, 3, "%d", GetPressure);
                 ; 0000 050F 		bPressureReward = 0;
                 _0x1EF:
                 _0x1EE:
001260 e0e0      	LDI  R30,LOW(0)
001261 93e0 0a57 	STS  _bPressureReward,R30
                 ; 0000 0510 	}
                 ; 0000 0511 }
                 _0x1EA:
001263 9624      	ADIW R28,4
001264 9508      	RET
                 ;
                 ;void PressureCheckSubroutine(void)
                 ; 0000 0514 {
                 _PressureCheckSubroutine:
                 ; 0000 0515 	unsigned long GetPressure;
                 ; 0000 0516 
                 ; 0000 0517 	if (bAutoMode == 2  && (RunStep == RUN_PRESSURE_DELAY) && !bRunAlarm)
001265 9724      	SBIW R28,4
                 ;	GetPressure -> Y+0
001266 91a0 0a24 	LDS  R26,_bAutoMode
001268 30a2      	CPI  R26,LOW(0x2)
001269 f011      	BREQ PC+3
00126a 940c 1279 	JMP _0x1F1
00126c 91a0 0a2e 	LDS  R26,_RunStep
00126e 30a6      	CPI  R26,LOW(0x6)
00126f f011      	BREQ PC+3
001270 940c 1279 	JMP _0x1F1
001272 91e0 0a3b 	LDS  R30,_bRunAlarm
001274 30e0      	CPI  R30,0
001275 f011      	BREQ PC+3
001276 940c 1279 	JMP _0x1F1
001278 c001      	RJMP _0x1F2
                 _0x1F1:
001279 c01d      	RJMP _0x1F0
                 _0x1F2:
                 ; 0000 0518 	{
                 ; 0000 0519 		GetPressure = GetItv();
00127a 940e 23b6 	CALL SUBOPT_0x89
                 ; 0000 051A 		if (RunStepTime >= 100)	// 1000ms Delay
00127c 940e 23ad 	CALL SUBOPT_0x88
                +
00127e 36a4     +CPI R26 , LOW ( 0x64 )
00127f e0e0     +LDI R30 , HIGH ( 0x64 )
001280 07be     +CPC R27 , R30
001281 e0e0     +LDI R30 , BYTE3 ( 0x64 )
001282 078e     +CPC R24 , R30
001283 e0e0     +LDI R30 , BYTE4 ( 0x64 )
001284 079e     +CPC R25 , R30
                 	__CPD2N 0x64
001285 f410      	BRSH PC+3
001286 940c 1297 	JMP _0x1F3
                 ; 0000 051B 		{
                 ; 0000 051C 			if (abs(Pressure - GetPressure) > PRESSURE_LIMIT) bPressureFail = 1;
001288 940e 23bd 	CALL SUBOPT_0x8A
00128a 940e 26bf 	CALL __SWAPD12
00128c 940e 25c7 	CALL __SUBD12
00128e 940e 23cf 	CALL SUBOPT_0x8C
001290 97f3      	SBIW R30,51
001291 f410      	BRSH PC+3
001292 940c 1297 	JMP _0x1F4
001294 e0e1      	LDI  R30,LOW(1)
001295 93e0 0a27 	STS  _bPressureFail,R30
                 ; 0000 051D //				else bPressureFail = 0;
                 ; 0000 051E 		}
                 _0x1F4:
                 ; 0000 051F 	}
                 _0x1F3:
                 ; 0000 0520 }
                 _0x1F0:
001297 9624      	ADIW R28,4
001298 9508      	RET
                 ;
                 ;
                 ;
                 ;
                 ;
                 ;
                 
                 	.CSEG
                 _ftrunc:
001299 817b         ldd  r23,y+3
00129a 816a         ldd  r22,y+2
00129b 81f9         ldd  r31,y+1
00129c 81e8         ld   r30,y
00129d fb77         bst  r23,7
00129e 0f77         lsl  r23
00129f fd67         sbrc r22,7
0012a0 6071         sbr  r23,1
0012a1 2f97         mov  r25,r23
0012a2 579e         subi r25,0x7e
0012a3 f081         breq __ftrunc0
0012a4 f078         brcs __ftrunc0
0012a5 3198         cpi  r25,24
0012a6 f490         brsh __ftrunc1
0012a7 27aa         clr  r26
0012a8 27bb         clr  r27
0012a9 2788         clr  r24
                 __ftrunc2:
0012aa 9408         sec
0012ab 9587         ror  r24
0012ac 95b7         ror  r27
0012ad 95a7         ror  r26
0012ae 959a         dec  r25
0012af f7d1         brne __ftrunc2
0012b0 23ea         and  r30,r26
0012b1 23fb         and  r31,r27
0012b2 2368         and  r22,r24
0012b3 c005         rjmp __ftrunc1
                 __ftrunc0:
0012b4 94e8         clt
0012b5 2777         clr  r23
0012b6 27ee         clr  r30
0012b7 27ff         clr  r31
0012b8 2766         clr  r22
                 __ftrunc1:
0012b9 776f         cbr  r22,0x80
0012ba 9576         lsr  r23
0012bb f408         brcc __ftrunc3
0012bc 6860         sbr  r22,0x80
                 __ftrunc3:
0012bd f977         bld  r23,7
0012be 91a9         ld   r26,y+
0012bf 91b9         ld   r27,y+
0012c0 9189         ld   r24,y+
0012c1 9199         ld   r25,y+
0012c2 17ea         cp   r30,r26
0012c3 07fb         cpc  r31,r27
0012c4 0768         cpc  r22,r24
0012c5 0779         cpc  r23,r25
0012c6 fb97         bst  r25,7
0012c7 9508         ret
                 _floor:
0012c8 940e 23d3 	CALL SUBOPT_0x8D
0012ca 940e 26ba 	CALL __PUTPARD1
0012cc 940e 1299 	CALL _ftrunc
0012ce 940e 23d8 	CALL SUBOPT_0x8E
0012d0 f421          brne __floor1
                 __floor0:
0012d1 940e 23d3 	CALL SUBOPT_0x8D
0012d3 9624      	ADIW R28,4
0012d4 9508      	RET
                 __floor1:
0012d5 f7de          brtc __floor0
0012d6 940e 23dd 	CALL SUBOPT_0x8F
                +
0012d8 e0e0     +LDI R30 , LOW ( 0x3F800000 )
0012d9 e0f0     +LDI R31 , HIGH ( 0x3F800000 )
0012da e860     +LDI R22 , BYTE3 ( 0x3F800000 )
0012db e37f     +LDI R23 , BYTE4 ( 0x3F800000 )
                 	__GETD1N 0x3F800000
0012dc 940e 23e2 	CALL SUBOPT_0x90
0012de 9624      	ADIW R28,4
0012df 9508      	RET
                 	#ifndef __SLEEP_DEFINED__
                 	#endif
                 
                 	.CSEG
                 _putchar:
                 _0x2020006:
0012e0 91e0 00c0 	LDS  R30,192
0012e2 72e0      	ANDI R30,LOW(0x20)
0012e3 f011      	BREQ PC+3
0012e4 940c 12e7 	JMP _0x2020008
0012e6 cff9      	RJMP _0x2020006
                 _0x2020008:
0012e7 81e8      	LD   R30,Y
0012e8 93e0 00c6 	STS  198,R30
0012ea 9621      	ADIW R28,1
0012eb 9508      	RET
                 __put_G101:
0012ec 931a      	ST   -Y,R17
0012ed 930a      	ST   -Y,R16
0012ee 81ac      	LDD  R26,Y+4
0012ef 81bd      	LDD  R27,Y+4+1
0012f0 940e 26a6 	CALL __GETW1P
0012f2 9730      	SBIW R30,0
0012f3 f411      	BRNE PC+3
0012f4 940c 1314 	JMP _0x2020016
0012f6 81aa      	LDD  R26,Y+2
0012f7 81bb      	LDD  R27,Y+2+1
0012f8 940e 26a6 	CALL __GETW1P
0012fa 018f      	MOVW R16,R30
0012fb 9730      	SBIW R30,0
0012fc f011      	BREQ PC+3
0012fd 940c 1300 	JMP _0x2020017
0012ff c00d      	RJMP _0x2020018
                 _0x2020017:
                +
001300 3002     +CPI R16 , LOW ( 2 )
001301 e0e0     +LDI R30 , HIGH ( 2 )
001302 071e     +CPC R17 , R30
                 	__CPWRN 16,17,2
001303 f410      	BRSH PC+3
001304 940c 1313 	JMP _0x2020019
001306 01f8      	MOVW R30,R16
001307 9731      	SBIW R30,1
001308 018f      	MOVW R16,R30
001309 81aa      	LDD  R26,Y+2
00130a 81bb      	LDD  R27,Y+2+1
00130b 93ed      	ST   X+,R30
00130c 93fc      	ST   X,R31
                 _0x2020018:
00130d 81ac      	LDD  R26,Y+4
00130e 81bd      	LDD  R27,Y+4+1
00130f 940e 1f8c 	CALL SUBOPT_0x1
001311 81ae      	LDD  R26,Y+6
001312 83a0      	STD  Z+0,R26
                 _0x2020019:
001313 c004      	RJMP _0x202001A
                 _0x2020016:
001314 81ee      	LDD  R30,Y+6
001315 93ea      	ST   -Y,R30
001316 940e 12e0 	CALL _putchar
                 _0x202001A:
001318 8119      	LDD  R17,Y+1
001319 8108      	LDD  R16,Y+0
00131a 9627      	ADIW R28,7
00131b 9508      	RET
                 __ftoe_G101:
00131c 940e 23e7 	CALL SUBOPT_0x91
00131e e8e0      	LDI  R30,LOW(128)
00131f 83ea      	STD  Y+2,R30
001320 e3ef      	LDI  R30,LOW(63)
001321 83eb      	STD  Y+3,R30
001322 940e 288d 	CALL __SAVELOCR4
001324 85ee      	LDD  R30,Y+14
001325 85ff      	LDD  R31,Y+14+1
001326 3fef      	CPI  R30,LOW(0xFFFF)
001327 efaf      	LDI  R26,HIGH(0xFFFF)
001328 07fa      	CPC  R31,R26
001329 f011      	BREQ PC+3
00132a 940c 1335 	JMP _0x202001E
00132c 85e8      	LDD  R30,Y+8
00132d 85f9      	LDD  R31,Y+8+1
00132e 93fa      	ST   -Y,R31
00132f 93ea      	ST   -Y,R30
                +
001330 e3e6     +LDI R30 , LOW ( 2 * _0x2020000 + 0 )
001331 e0f5     +LDI R31 , HIGH ( 2 * _0x2020000 + 0 )
                 	__POINTW1FN _0x2020000,0
001332 940e 23ec 	CALL SUBOPT_0x92
001334 9508      	RET
                 _0x202001E:
001335 3fef      	CPI  R30,LOW(0x7FFF)
001336 e7af      	LDI  R26,HIGH(0x7FFF)
001337 07fa      	CPC  R31,R26
001338 f011      	BREQ PC+3
001339 940c 1344 	JMP _0x202001D
00133b 85e8      	LDD  R30,Y+8
00133c 85f9      	LDD  R31,Y+8+1
00133d 93fa      	ST   -Y,R31
00133e 93ea      	ST   -Y,R30
                +
00133f e3e7     +LDI R30 , LOW ( 2 * _0x2020000 + 1 )
001340 e0f5     +LDI R31 , HIGH ( 2 * _0x2020000 + 1 )
                 	__POINTW1FN _0x2020000,1
001341 940e 23ec 	CALL SUBOPT_0x92
001343 9508      	RET
                 _0x202001D:
001344 85ab      	LDD  R26,Y+11
001345 30a7      	CPI  R26,LOW(0x7)
001346 f410      	BRSH PC+3
001347 940c 134b 	JMP _0x2020020
001349 e0e6      	LDI  R30,LOW(6)
00134a 87eb      	STD  Y+11,R30
                 _0x2020020:
00134b 851b      	LDD  R17,Y+11
                 _0x2020021:
00134c 2fe1      	MOV  R30,R17
00134d 5011      	SUBI R17,1
00134e 30e0      	CPI  R30,0
00134f f411      	BRNE PC+3
001350 940c 1355 	JMP _0x2020023
001352 940e 23f4 	CALL SUBOPT_0x93
001354 cff7      	RJMP _0x2020021
                 _0x2020023:
001355 940e 2403 	CALL SUBOPT_0x94
001357 940e 2873 	CALL __CPD10
001359 f011      	BREQ PC+3
00135a 940c 1360 	JMP _0x2020024
00135c e030      	LDI  R19,LOW(0)
00135d 940e 23f4 	CALL SUBOPT_0x93
00135f c032      	RJMP _0x2020025
                 _0x2020024:
001360 853b      	LDD  R19,Y+11
001361 940e 2408 	CALL SUBOPT_0x95
001363 f009      	BREQ PC+2
001364 f410      	BRCC PC+3
001365 940c 1374 	JMP  _0x2020026
001367 940e 23f4 	CALL SUBOPT_0x93
                 _0x2020027:
001369 940e 2408 	CALL SUBOPT_0x95
00136b f410      	BRSH PC+3
00136c 940c 1373 	JMP _0x2020029
00136e 940e 2413 	CALL SUBOPT_0x96
001370 940e 2418 	CALL SUBOPT_0x97
001372 cff6      	RJMP _0x2020027
                 _0x2020029:
001373 c00f      	RJMP _0x202002A
                 _0x2020026:
                 _0x202002B:
001374 940e 2408 	CALL SUBOPT_0x95
001376 f010      	BRLO PC+3
001377 940c 1381 	JMP _0x202002D
001379 940e 2413 	CALL SUBOPT_0x96
00137b 940e 2424 	CALL SUBOPT_0x98
00137d 940e 242b 	CALL SUBOPT_0x99
00137f 5031      	SUBI R19,LOW(1)
001380 cff3      	RJMP _0x202002B
                 _0x202002D:
001381 940e 23f4 	CALL SUBOPT_0x93
                 _0x202002A:
001383 940e 2403 	CALL SUBOPT_0x94
001385 940e 2430 	CALL SUBOPT_0x9A
001387 940e 242b 	CALL SUBOPT_0x99
001389 940e 2408 	CALL SUBOPT_0x95
00138b f410      	BRSH PC+3
00138c 940c 1392 	JMP _0x202002E
00138e 940e 2413 	CALL SUBOPT_0x96
001390 940e 2418 	CALL SUBOPT_0x97
                 _0x202002E:
                 _0x2020025:
001392 e010      	LDI  R17,LOW(0)
                 _0x202002F:
001393 85eb      	LDD  R30,Y+11
001394 17e1      	CP   R30,R17
001395 f410      	BRSH PC+3
001396 940c 13cf 	JMP _0x2020031
                +
001398 81ac     +LDD R26 , Y + 4
001399 81bd     +LDD R27 , Y + 4 + 1
00139a 818e     +LDD R24 , Y + 4 + 2
00139b 819f     +LDD R25 , Y + 4 + 3
                 	__GETD2S 4
00139c 940e 2437 	CALL SUBOPT_0x9B
00139e 940e 2430 	CALL SUBOPT_0x9A
0013a0 940e 26ba 	CALL __PUTPARD1
0013a2 940e 12c8 	CALL _floor
                +
0013a4 83ec     +STD Y + 4 , R30
0013a5 83fd     +STD Y + 4 + 1 , R31
0013a6 836e     +STD Y + 4 + 2 , R22
0013a7 837f     +STD Y + 4 + 3 , R23
                 	__PUTD1S 4
0013a8 940e 2413 	CALL SUBOPT_0x96
0013aa 940e 280e 	CALL __DIVF21
0013ac 940e 26ff 	CALL __CFD1U
0013ae 2f0e      	MOV  R16,R30
0013af 940e 243e 	CALL SUBOPT_0x9C
0013b1 940e 2445 	CALL SUBOPT_0x9D
0013b3 940e 2604 	CALL __CBD1
0013b5 940e 2738 	CALL __CDF1
                +
0013b7 81ac     +LDD R26 , Y + 4
0013b8 81bd     +LDD R27 , Y + 4 + 1
0013b9 818e     +LDD R24 , Y + 4 + 2
0013ba 819f     +LDD R25 , Y + 4 + 3
                 	__GETD2S 4
0013bb 940e 27c0 	CALL __MULF12
0013bd 940e 2413 	CALL SUBOPT_0x96
0013bf 940e 23e2 	CALL SUBOPT_0x90
0013c1 940e 242b 	CALL SUBOPT_0x99
0013c3 2fe1      	MOV  R30,R17
0013c4 5f1f      	SUBI R17,-1
0013c5 30e0      	CPI  R30,0
0013c6 f411      	BRNE PC+3
0013c7 940c 13ca 	JMP _0x2020032
0013c9 cfc9      	RJMP _0x202002F
                 _0x2020032:
0013ca 940e 243e 	CALL SUBOPT_0x9C
0013cc e2ee      	LDI  R30,LOW(46)
0013cd 93ec      	ST   X,R30
0013ce cfc4      	RJMP _0x202002F
                 _0x2020031:
0013cf 940e 244a 	CALL SUBOPT_0x9E
0013d1 85aa      	LDD  R26,Y+10
0013d2 83a0      	STD  Z+0,R26
0013d3 3030      	CPI  R19,0
0013d4 f014      	BRLT PC+3
0013d5 940c 13dc 	JMP _0x2020033
0013d7 940e 243e 	CALL SUBOPT_0x9C
0013d9 e2ed      	LDI  R30,LOW(45)
0013da 93ec      	ST   X,R30
0013db 9531      	NEG  R19
                 _0x2020033:
0013dc 303a      	CPI  R19,10
0013dd f414      	BRGE PC+3
0013de 940c 13ea 	JMP _0x2020034
0013e0 940e 244a 	CALL SUBOPT_0x9E
0013e2 01bf      	MOVW R22,R30
0013e3 2fa3      	MOV  R26,R19
0013e4 e0ea      	LDI  R30,LOW(10)
0013e5 940e 264a 	CALL __DIVB21
0013e7 5de0      	SUBI R30,-LOW(48)
0013e8 01db      	MOVW R26,R22
0013e9 93ec      	ST   X,R30
                 _0x2020034:
0013ea 940e 244a 	CALL SUBOPT_0x9E
0013ec 01bf      	MOVW R22,R30
0013ed 2fa3      	MOV  R26,R19
0013ee e0ea      	LDI  R30,LOW(10)
0013ef 940e 2687 	CALL __MODB21
0013f1 5de0      	SUBI R30,-LOW(48)
0013f2 01db      	MOVW R26,R22
0013f3 93ec      	ST   X,R30
0013f4 85a8      	LDD  R26,Y+8
0013f5 85b9      	LDD  R27,Y+8+1
0013f6 e0e0      	LDI  R30,LOW(0)
0013f7 93ec      	ST   X,R30
0013f8 940e 2894 	CALL __LOADLOCR4
0013fa 9660      	ADIW R28,16
0013fb 9508      	RET
                 __print_G101:
0013fc 97ef      	SBIW R28,63
0013fd 972f      	SBIW R28,15
0013fe 940e 288b 	CALL __SAVELOCR6
001400 e010      	LDI  R17,0
                +
001401 01fe     +MOVW R30 , R28
001402 5aec     +SUBI R30 , LOW ( - 84 )
001403 4fff     +SBCI R31 , HIGH ( - 84 )
001404 9001     +LD R0 , Z +
001405 81f0     +LD R31 , Z
001406 2de0     +MOV R30 , R0
                 	__GETW1SX 84
001407 8be8      	STD  Y+16,R30
001408 8bf9      	STD  Y+16+1,R31
                 _0x2020035:
001409 01de      	MOVW R26,R28
00140a 5aa6      	SUBI R26,LOW(-(90))
00140b 4fbf      	SBCI R27,HIGH(-(90))
00140c 940e 1f8c 	CALL SUBOPT_0x1
00140e 91e4      	LPM  R30,Z
00140f 2f2e      	MOV  R18,R30
001410 30e0      	CPI  R30,0
001411 f411      	BRNE PC+3
001412 940c 1677 	JMP _0x2020037
001414 2fe1      	MOV  R30,R17
001415 30e0      	CPI  R30,0
001416 f011      	BREQ PC+3
001417 940c 1422 	JMP _0x202003B
001419 3225      	CPI  R18,37
00141a f011      	BREQ PC+3
00141b 940c 141f 	JMP _0x202003C
00141d e011      	LDI  R17,LOW(1)
00141e c002      	RJMP _0x202003D
                 _0x202003C:
00141f 940e 2451 	CALL SUBOPT_0x9F
                 _0x202003D:
001421 c254      	RJMP _0x202003A
                 _0x202003B:
001422 30e1      	CPI  R30,LOW(0x1)
001423 f011      	BREQ PC+3
001424 940c 1447 	JMP _0x202003E
001426 3225      	CPI  R18,37
001427 f011      	BREQ PC+3
001428 940c 142e 	JMP _0x202003F
00142a 940e 2451 	CALL SUBOPT_0x9F
00142c e010      	LDI  R17,LOW(0)
00142d c248      	RJMP _0x202003A
                 _0x202003F:
00142e e012      	LDI  R17,LOW(2)
00142f e0e0      	LDI  R30,LOW(0)
001430 8beb      	STD  Y+19,R30
001431 e000      	LDI  R16,LOW(0)
001432 322d      	CPI  R18,45
001433 f011      	BREQ PC+3
001434 940c 1438 	JMP _0x2020040
001436 e001      	LDI  R16,LOW(1)
001437 c23e      	RJMP _0x202003A
                 _0x2020040:
001438 322b      	CPI  R18,43
001439 f011      	BREQ PC+3
00143a 940c 143f 	JMP _0x2020041
00143c e2eb      	LDI  R30,LOW(43)
00143d 8beb      	STD  Y+19,R30
00143e c237      	RJMP _0x202003A
                 _0x2020041:
00143f 3220      	CPI  R18,32
001440 f011      	BREQ PC+3
001441 940c 1446 	JMP _0x2020042
001443 e2e0      	LDI  R30,LOW(32)
001444 8beb      	STD  Y+19,R30
001445 c230      	RJMP _0x202003A
                 _0x2020042:
001446 c004      	RJMP _0x2020043
                 _0x202003E:
001447 30e2      	CPI  R30,LOW(0x2)
001448 f011      	BREQ PC+3
001449 940c 1454 	JMP _0x2020044
                 _0x2020043:
00144b e050      	LDI  R21,LOW(0)
00144c e013      	LDI  R17,LOW(3)
00144d 3320      	CPI  R18,48
00144e f011      	BREQ PC+3
00144f 940c 1453 	JMP _0x2020045
001451 6800      	ORI  R16,LOW(128)
001452 c223      	RJMP _0x202003A
                 _0x2020045:
001453 c004      	RJMP _0x2020046
                 _0x2020044:
001454 30e3      	CPI  R30,LOW(0x3)
001455 f011      	BREQ PC+3
001456 940c 1474 	JMP _0x2020047
                 _0x2020046:
001458 3320      	CPI  R18,48
001459 f410      	BRSH PC+3
00145a 940c 1461 	JMP _0x2020049
00145c 332a      	CPI  R18,58
00145d f010      	BRLO PC+3
00145e 940c 1461 	JMP _0x2020049
001460 c001      	RJMP _0x202004A
                 _0x2020049:
001461 c009      	RJMP _0x2020048
                 _0x202004A:
001462 2fa5      	MOV  R26,R21
001463 e0ea      	LDI  R30,LOW(10)
001464 9fea      	MUL  R30,R26
001465 01f0      	MOVW R30,R0
001466 2f5e      	MOV  R21,R30
001467 2fe2      	MOV  R30,R18
001468 53e0      	SUBI R30,LOW(48)
001469 0f5e      	ADD  R21,R30
00146a c20b      	RJMP _0x202003A
                 _0x2020048:
00146b e040      	LDI  R20,LOW(0)
00146c 322e      	CPI  R18,46
00146d f011      	BREQ PC+3
00146e 940c 1472 	JMP _0x202004B
001470 e014      	LDI  R17,LOW(4)
001471 c204      	RJMP _0x202003A
                 _0x202004B:
001472 c019      	RJMP _0x202004C
001473 c004      	RJMP _0x202004D
                 _0x2020047:
001474 30e4      	CPI  R30,LOW(0x4)
001475 f011      	BREQ PC+3
001476 940c 1494 	JMP _0x202004E
                 _0x202004D:
001478 3320      	CPI  R18,48
001479 f410      	BRSH PC+3
00147a 940c 1481 	JMP _0x2020050
00147c 332a      	CPI  R18,58
00147d f010      	BRLO PC+3
00147e 940c 1481 	JMP _0x2020050
001480 c001      	RJMP _0x2020051
                 _0x2020050:
001481 c00a      	RJMP _0x202004F
                 _0x2020051:
001482 6200      	ORI  R16,LOW(32)
001483 2fa4      	MOV  R26,R20
001484 e0ea      	LDI  R30,LOW(10)
001485 9fea      	MUL  R30,R26
001486 01f0      	MOVW R30,R0
001487 2f4e      	MOV  R20,R30
001488 2fe2      	MOV  R30,R18
001489 53e0      	SUBI R30,LOW(48)
00148a 0f4e      	ADD  R20,R30
00148b c1ea      	RJMP _0x202003A
                 _0x202004F:
                 _0x202004C:
00148c 362c      	CPI  R18,108
00148d f011      	BREQ PC+3
00148e 940c 1493 	JMP _0x2020052
001490 6002      	ORI  R16,LOW(2)
001491 e015      	LDI  R17,LOW(5)
001492 c1e3      	RJMP _0x202003A
                 _0x2020052:
001493 c004      	RJMP _0x2020053
                 _0x202004E:
001494 30e5      	CPI  R30,LOW(0x5)
001495 f011      	BREQ PC+3
001496 940c 1676 	JMP _0x202003A
                 _0x2020053:
001498 2fe2      	MOV  R30,R18
001499 36e3      	CPI  R30,LOW(0x63)
00149a f011      	BREQ PC+3
00149b 940c 14a9 	JMP _0x2020058
00149d 940e 2460 	CALL SUBOPT_0xA0
00149f 940e 2467 	CALL SUBOPT_0xA1
0014a1 940e 2460 	CALL SUBOPT_0xA0
0014a3 81a4      	LDD  R26,Z+4
0014a4 93aa      	ST   -Y,R26
0014a5 940e 246e 	CALL SUBOPT_0xA2
0014a7 c1cd      	RJMP _0x2020059
0014a8 c004      	RJMP _0x202005A
                 _0x2020058:
0014a9 34e5      	CPI  R30,LOW(0x45)
0014aa f011      	BREQ PC+3
0014ab 940c 14ae 	JMP _0x202005B
                 _0x202005A:
0014ad c004      	RJMP _0x202005C
                 _0x202005B:
0014ae 36e5      	CPI  R30,LOW(0x65)
0014af f011      	BREQ PC+3
0014b0 940c 14b3 	JMP _0x202005D
                 _0x202005C:
0014b2 c004      	RJMP _0x202005E
                 _0x202005D:
0014b3 36e6      	CPI  R30,LOW(0x66)
0014b4 f011      	BREQ PC+3
0014b5 940c 1505 	JMP _0x202005F
                 _0x202005E:
0014b7 01fe      	MOVW R30,R28
0014b8 9674      	ADIW R30,20
0014b9 87ea      	STD  Y+10,R30
0014ba 87fb      	STD  Y+10+1,R31
0014bb 940e 247c 	CALL SUBOPT_0xA3
0014bd 940e 2483 	CALL SUBOPT_0xA4
0014bf 940e 248a 	CALL SUBOPT_0xA5
0014c1 85a9      	LDD  R26,Y+9
0014c2 23aa      	TST  R26
0014c3 f412      	BRPL PC+3
0014c4 940c 14cd 	JMP _0x2020060
0014c6 89ab      	LDD  R26,Y+19
0014c7 32ab      	CPI  R26,LOW(0x2B)
0014c8 f011      	BREQ PC+3
0014c9 940c 14cc 	JMP _0x2020061
0014cb c009      	RJMP _0x2020062
                 _0x2020061:
0014cc c013      	RJMP _0x2020063
                 _0x2020060:
0014cd 940e 248d 	CALL SUBOPT_0xA6
0014cf 940e 26cc 	CALL __ANEGF1
0014d1 940e 2492 	CALL SUBOPT_0xA7
0014d3 e2ed      	LDI  R30,LOW(45)
0014d4 8beb      	STD  Y+19,R30
                 _0x2020062:
0014d5 ff07      	SBRS R16,7
0014d6 c005      	RJMP _0x2020064
0014d7 89eb      	LDD  R30,Y+19
0014d8 93ea      	ST   -Y,R30
0014d9 940e 246e 	CALL SUBOPT_0xA2
0014db c004      	RJMP _0x2020065
                 _0x2020064:
0014dc 940e 2497 	CALL SUBOPT_0xA8
0014de 89ab      	LDD  R26,Y+19
0014df 83a0      	STD  Z+0,R26
                 _0x2020065:
                 _0x2020063:
0014e0 fd05      	SBRC R16,5
0014e1 c001      	RJMP _0x2020066
0014e2 e046      	LDI  R20,LOW(6)
                 _0x2020066:
0014e3 3626      	CPI  R18,102
0014e4 f011      	BREQ PC+3
0014e5 940c 14f3 	JMP _0x2020067
0014e7 940e 248d 	CALL SUBOPT_0xA6
0014e9 940e 26ba 	CALL __PUTPARD1
0014eb 934a      	ST   -Y,R20
0014ec 85ef      	LDD  R30,Y+15
0014ed 89f8      	LDD  R31,Y+15+1
0014ee 93fa      	ST   -Y,R31
0014ef 93ea      	ST   -Y,R30
0014f0 940e 1699 	CALL _ftoa
0014f2 c00c      	RJMP _0x2020068
                 _0x2020067:
0014f3 940e 248d 	CALL SUBOPT_0xA6
0014f5 940e 26ba 	CALL __PUTPARD1
0014f7 934a      	ST   -Y,R20
0014f8 932a      	ST   -Y,R18
0014f9 89e8      	LDD  R30,Y+16
0014fa 89f9      	LDD  R31,Y+16+1
0014fb 93fa      	ST   -Y,R31
0014fc 93ea      	ST   -Y,R30
0014fd 940e 131c 	CALL __ftoe_G101
                 _0x2020068:
0014ff 01fe      	MOVW R30,R28
001500 9674      	ADIW R30,20
001501 940e 249e 	CALL SUBOPT_0xA9
001503 c029      	RJMP _0x2020069
001504 c004      	RJMP _0x202006A
                 _0x202005F:
001505 37e3      	CPI  R30,LOW(0x73)
001506 f011      	BREQ PC+3
001507 940c 1511 	JMP _0x202006B
                 _0x202006A:
001509 940e 248a 	CALL SUBOPT_0xA5
00150b 940e 24a6 	CALL SUBOPT_0xAA
00150d 940e 249e 	CALL SUBOPT_0xA9
00150f c011      	RJMP _0x202006C
001510 c004      	RJMP _0x202006D
                 _0x202006B:
001511 37e0      	CPI  R30,LOW(0x70)
001512 f011      	BREQ PC+3
001513 940c 1533 	JMP _0x202006E
                 _0x202006D:
001515 940e 248a 	CALL SUBOPT_0xA5
001517 940e 24a6 	CALL SUBOPT_0xAA
001519 87ea      	STD  Y+10,R30
00151a 87fb      	STD  Y+10+1,R31
00151b 93fa      	ST   -Y,R31
00151c 93ea      	ST   -Y,R30
00151d 940e 1781 	CALL _strlenf
00151f 2f1e      	MOV  R17,R30
001520 6008      	ORI  R16,LOW(8)
                 _0x202006C:
001521 770f      	ANDI R16,LOW(127)
001522 3040      	CPI  R20,0
001523 f411      	BRNE PC+3
001524 940c 152b 	JMP _0x2020070
001526 1741      	CP   R20,R17
001527 f010      	BRLO PC+3
001528 940c 152b 	JMP _0x2020070
00152a c001      	RJMP _0x2020071
                 _0x2020070:
00152b c001      	RJMP _0x202006F
                 _0x2020071:
00152c 2f14      	MOV  R17,R20
                 _0x202006F:
                 _0x2020069:
00152d e040      	LDI  R20,LOW(0)
00152e e0e0      	LDI  R30,LOW(0)
00152f 8bea      	STD  Y+18,R30
001530 e030      	LDI  R19,LOW(0)
001531 c07f      	RJMP _0x2020072
001532 c004      	RJMP _0x2020073
                 _0x202006E:
001533 36e4      	CPI  R30,LOW(0x64)
001534 f011      	BREQ PC+3
001535 940c 1538 	JMP _0x2020074
                 _0x2020073:
001537 c004      	RJMP _0x2020075
                 _0x2020074:
001538 36e9      	CPI  R30,LOW(0x69)
001539 f011      	BREQ PC+3
00153a 940c 153e 	JMP _0x2020076
                 _0x2020075:
00153c 6004      	ORI  R16,LOW(4)
00153d c004      	RJMP _0x2020077
                 _0x2020076:
00153e 37e5      	CPI  R30,LOW(0x75)
00153f f011      	BREQ PC+3
001540 940c 1557 	JMP _0x2020078
                 _0x2020077:
001542 e0ea      	LDI  R30,LOW(10)
001543 8bea      	STD  Y+18,R30
001544 ff01      	SBRS R16,1
001545 c008      	RJMP _0x2020079
                +
001546 e0e0     +LDI R30 , LOW ( 0x3B9ACA00 )
001547 ecfa     +LDI R31 , HIGH ( 0x3B9ACA00 )
001548 e96a     +LDI R22 , BYTE3 ( 0x3B9ACA00 )
001549 e37b     +LDI R23 , BYTE4 ( 0x3B9ACA00 )
                 	__GETD1N 0x3B9ACA00
00154a 940e 242b 	CALL SUBOPT_0x99
00154c e01a      	LDI  R17,LOW(10)
00154d c026      	RJMP _0x202007A
                 _0x2020079:
                +
00154e e1e0     +LDI R30 , LOW ( 0x2710 )
00154f e2f7     +LDI R31 , HIGH ( 0x2710 )
001550 e060     +LDI R22 , BYTE3 ( 0x2710 )
001551 e070     +LDI R23 , BYTE4 ( 0x2710 )
                 	__GETD1N 0x2710
001552 940e 242b 	CALL SUBOPT_0x99
001554 e015      	LDI  R17,LOW(5)
001555 c01e      	RJMP _0x202007A
001556 c004      	RJMP _0x202007B
                 _0x2020078:
001557 35e8      	CPI  R30,LOW(0x58)
001558 f011      	BREQ PC+3
001559 940c 155d 	JMP _0x202007C
                 _0x202007B:
00155b 6008      	ORI  R16,LOW(8)
00155c c004      	RJMP _0x202007D
                 _0x202007C:
00155d 37e8      	CPI  R30,LOW(0x78)
00155e f011      	BREQ PC+3
00155f 940c 1675 	JMP _0x20200BB
                 _0x202007D:
001561 e1e0      	LDI  R30,LOW(16)
001562 8bea      	STD  Y+18,R30
001563 ff01      	SBRS R16,1
001564 c008      	RJMP _0x202007F
                +
001565 e0e0     +LDI R30 , LOW ( 0x10000000 )
001566 e0f0     +LDI R31 , HIGH ( 0x10000000 )
001567 e060     +LDI R22 , BYTE3 ( 0x10000000 )
001568 e170     +LDI R23 , BYTE4 ( 0x10000000 )
                 	__GETD1N 0x10000000
001569 940e 242b 	CALL SUBOPT_0x99
00156b e018      	LDI  R17,LOW(8)
00156c c007      	RJMP _0x202007A
                 _0x202007F:
                +
00156d e0e0     +LDI R30 , LOW ( 0x1000 )
00156e e1f0     +LDI R31 , HIGH ( 0x1000 )
00156f e060     +LDI R22 , BYTE3 ( 0x1000 )
001570 e070     +LDI R23 , BYTE4 ( 0x1000 )
                 	__GETD1N 0x1000
001571 940e 242b 	CALL SUBOPT_0x99
001573 e014      	LDI  R17,LOW(4)
                 _0x202007A:
001574 3040      	CPI  R20,0
001575 f411      	BRNE PC+3
001576 940c 157a 	JMP _0x2020080
001578 770f      	ANDI R16,LOW(127)
001579 c001      	RJMP _0x2020081
                 _0x2020080:
00157a e041      	LDI  R20,LOW(1)
                 _0x2020081:
00157b ff01      	SBRS R16,1
00157c c008      	RJMP _0x2020082
00157d 940e 248a 	CALL SUBOPT_0xA5
00157f 940e 247c 	CALL SUBOPT_0xA3
001581 9614      	ADIW R26,4
001582 940e 2483 	CALL SUBOPT_0xA4
001584 c013      	RJMP _0x2020083
                 _0x2020082:
001585 ff02      	SBRS R16,2
001586 c009      	RJMP _0x2020084
001587 940e 248a 	CALL SUBOPT_0xA5
001589 940e 24a6 	CALL SUBOPT_0xAA
00158b 940e 260a 	CALL __CWD1
00158d 940e 2492 	CALL SUBOPT_0xA7
00158f c008      	RJMP _0x2020085
                 _0x2020084:
001590 940e 248a 	CALL SUBOPT_0xA5
001592 940e 24a6 	CALL SUBOPT_0xAA
001594 2766      	CLR  R22
001595 2777      	CLR  R23
001596 940e 2492 	CALL SUBOPT_0xA7
                 _0x2020085:
                 _0x2020083:
001598 ff02      	SBRS R16,2
001599 c016      	RJMP _0x2020086
00159a 85a9      	LDD  R26,Y+9
00159b 23aa      	TST  R26
00159c f012      	BRMI PC+3
00159d 940c 15a7 	JMP _0x2020087
00159f 940e 248d 	CALL SUBOPT_0xA6
0015a1 940e 25d6 	CALL __ANEGD1
0015a3 940e 2492 	CALL SUBOPT_0xA7
0015a5 e2ed      	LDI  R30,LOW(45)
0015a6 8beb      	STD  Y+19,R30
                 _0x2020087:
0015a7 89eb      	LDD  R30,Y+19
0015a8 30e0      	CPI  R30,0
0015a9 f411      	BRNE PC+3
0015aa 940c 15af 	JMP _0x2020088
0015ac 5f1f      	SUBI R17,-LOW(1)
0015ad 5f4f      	SUBI R20,-LOW(1)
0015ae c001      	RJMP _0x2020089
                 _0x2020088:
0015af 7f0b      	ANDI R16,LOW(251)
                 _0x2020089:
                 _0x2020086:
0015b0 2f34      	MOV  R19,R20
                 _0x2020072:
0015b1 fd00      	SBRC R16,0
0015b2 c019      	RJMP _0x202008A
                 _0x202008B:
0015b3 1715      	CP   R17,R21
0015b4 f010      	BRLO PC+3
0015b5 940c 15bc 	JMP _0x202008E
0015b7 1735      	CP   R19,R21
0015b8 f010      	BRLO PC+3
0015b9 940c 15bc 	JMP _0x202008E
0015bb c001      	RJMP _0x202008F
                 _0x202008E:
0015bc c00f      	RJMP _0x202008D
                 _0x202008F:
0015bd ff07      	SBRS R16,7
0015be c008      	RJMP _0x2020090
0015bf ff02      	SBRS R16,2
0015c0 c004      	RJMP _0x2020091
0015c1 7f0b      	ANDI R16,LOW(251)
0015c2 892b      	LDD  R18,Y+19
0015c3 5011      	SUBI R17,LOW(1)
0015c4 c001      	RJMP _0x2020092
                 _0x2020091:
0015c5 e320      	LDI  R18,LOW(48)
                 _0x2020092:
0015c6 c001      	RJMP _0x2020093
                 _0x2020090:
0015c7 e220      	LDI  R18,LOW(32)
                 _0x2020093:
0015c8 940e 2451 	CALL SUBOPT_0x9F
0015ca 5051      	SUBI R21,LOW(1)
0015cb cfe7      	RJMP _0x202008B
                 _0x202008D:
                 _0x202008A:
                 _0x2020094:
0015cc 1714      	CP   R17,R20
0015cd f010      	BRLO PC+3
0015ce 940c 15e6 	JMP _0x2020096
0015d0 6100      	ORI  R16,LOW(16)
0015d1 ff02      	SBRS R16,2
0015d2 c008      	RJMP _0x2020097
0015d3 940e 24ac 	CALL SUBOPT_0xAB
0015d5 f411      	BRNE PC+3
0015d6 940c 15d9 	JMP _0x2020098
0015d8 5051      	SUBI R21,LOW(1)
                 _0x2020098:
0015d9 5011      	SUBI R17,LOW(1)
0015da 5041      	SUBI R20,LOW(1)
                 _0x2020097:
0015db e3e0      	LDI  R30,LOW(48)
0015dc 93ea      	ST   -Y,R30
0015dd 940e 246e 	CALL SUBOPT_0xA2
0015df 3050      	CPI  R21,0
0015e0 f411      	BRNE PC+3
0015e1 940c 15e4 	JMP _0x2020099
0015e3 5051      	SUBI R21,LOW(1)
                 _0x2020099:
0015e4 5041      	SUBI R20,LOW(1)
0015e5 cfe6      	RJMP _0x2020094
                 _0x2020096:
0015e6 2f31      	MOV  R19,R17
0015e7 89ea      	LDD  R30,Y+18
0015e8 30e0      	CPI  R30,0
0015e9 f011      	BREQ PC+3
0015ea 940c 1609 	JMP _0x202009A
                 _0x202009B:
0015ec 3030      	CPI  R19,0
0015ed f411      	BRNE PC+3
0015ee 940c 1608 	JMP _0x202009D
0015f0 ff03      	SBRS R16,3
0015f1 c007      	RJMP _0x202009E
0015f2 940e 2497 	CALL SUBOPT_0xA8
0015f4 91e4      	LPM  R30,Z
0015f5 93ea      	ST   -Y,R30
0015f6 940e 246e 	CALL SUBOPT_0xA2
0015f8 c008      	RJMP _0x202009F
                 _0x202009E:
0015f9 85aa      	LDD  R26,Y+10
0015fa 85bb      	LDD  R27,Y+10+1
0015fb 91ed      	LD   R30,X+
0015fc 87aa      	STD  Y+10,R26
0015fd 87bb      	STD  Y+10+1,R27
0015fe 93ea      	ST   -Y,R30
0015ff 940e 246e 	CALL SUBOPT_0xA2
                 _0x202009F:
001601 3050      	CPI  R21,0
001602 f411      	BRNE PC+3
001603 940c 1606 	JMP _0x20200A0
001605 5051      	SUBI R21,LOW(1)
                 _0x20200A0:
001606 5031      	SUBI R19,LOW(1)
001607 cfe4      	RJMP _0x202009B
                 _0x202009D:
001608 c060      	RJMP _0x20200A1
                 _0x202009A:
                 _0x20200A3:
001609 940e 24c0 	CALL SUBOPT_0xAC
00160b 940e 2662 	CALL __DIVD21U
00160d 2f2e      	MOV  R18,R30
00160e 302a      	CPI  R18,10
00160f f410      	BRSH PC+3
001610 940c 1618 	JMP _0x20200A5
001612 ff03      	SBRS R16,3
001613 c002      	RJMP _0x20200A6
001614 5c29      	SUBI R18,-LOW(55)
001615 c001      	RJMP _0x20200A7
                 _0x20200A6:
001616 5a29      	SUBI R18,-LOW(87)
                 _0x20200A7:
001617 c001      	RJMP _0x20200A8
                 _0x20200A5:
001618 5d20      	SUBI R18,-LOW(48)
                 _0x20200A8:
001619 ff04      	SBRS R16,4
00161a c001      	RJMP _0x20200A9
00161b c02d      	RJMP _0x20200AA
                 _0x20200A9:
00161c 3321      	CPI  R18,49
00161d f010      	BRLO PC+3
00161e 940c 162d 	JMP _0x20200AC
001620 940e 2413 	CALL SUBOPT_0x96
                +
001622 30a1     +CPI R26 , LOW ( 0x1 )
001623 e0e0     +LDI R30 , HIGH ( 0x1 )
001624 07be     +CPC R27 , R30
001625 e0e0     +LDI R30 , BYTE3 ( 0x1 )
001626 078e     +CPC R24 , R30
001627 e0e0     +LDI R30 , BYTE4 ( 0x1 )
001628 079e     +CPC R25 , R30
                 	__CPD2N 0x1
001629 f411      	BRNE PC+3
00162a 940c 162d 	JMP _0x20200AC
00162c c001      	RJMP _0x20200AB
                 _0x20200AC:
00162d c012      	RJMP _0x20200AE
                 _0x20200AB:
00162e 1743      	CP   R20,R19
00162f f410      	BRSH PC+3
001630 940c 1634 	JMP _0x20200AF
001632 e320      	LDI  R18,LOW(48)
001633 c00c      	RJMP _0x20200AE
                 _0x20200AF:
001634 1753      	CP   R21,R19
001635 f410      	BRSH PC+3
001636 940c 163b 	JMP _0x20200B1
001638 fd00      	SBRC R16,0
001639 c001      	RJMP _0x20200B1
00163a c001      	RJMP _0x20200B2
                 _0x20200B1:
00163b c014      	RJMP _0x20200B0
                 _0x20200B2:
00163c e220      	LDI  R18,LOW(32)
00163d ff07      	SBRS R16,7
00163e c00a      	RJMP _0x20200B3
00163f e320      	LDI  R18,LOW(48)
                 _0x20200AE:
001640 6100      	ORI  R16,LOW(16)
001641 ff02      	SBRS R16,2
001642 c006      	RJMP _0x20200B4
001643 940e 24ac 	CALL SUBOPT_0xAB
001645 f411      	BRNE PC+3
001646 940c 1649 	JMP _0x20200B5
001648 5051      	SUBI R21,LOW(1)
                 _0x20200B5:
                 _0x20200B4:
                 _0x20200B3:
                 _0x20200AA:
001649 940e 2451 	CALL SUBOPT_0x9F
00164b 3050      	CPI  R21,0
00164c f411      	BRNE PC+3
00164d 940c 1650 	JMP _0x20200B6
00164f 5051      	SUBI R21,LOW(1)
                 _0x20200B6:
                 _0x20200B0:
001650 5031      	SUBI R19,LOW(1)
001651 940e 24c0 	CALL SUBOPT_0xAC
001653 940e 2696 	CALL __MODD21U
001655 940e 2492 	CALL SUBOPT_0xA7
001657 89ea      	LDD  R30,Y+18
001658 940e 2413 	CALL SUBOPT_0x96
00165a 27ff      	CLR  R31
00165b 2766      	CLR  R22
00165c 2777      	CLR  R23
00165d 940e 2662 	CALL __DIVD21U
00165f 940e 242b 	CALL SUBOPT_0x99
                 _0x20200A2:
001661 940e 2403 	CALL SUBOPT_0x94
001663 940e 2873 	CALL __CPD10
001665 f411      	BRNE PC+3
001666 940c 1669 	JMP _0x20200A4
001668 cfa0      	RJMP _0x20200A3
                 _0x20200A4:
                 _0x20200A1:
001669 ff00      	SBRS R16,0
00166a c00a      	RJMP _0x20200B7
                 _0x20200B8:
00166b 3050      	CPI  R21,0
00166c f411      	BRNE PC+3
00166d 940c 1675 	JMP _0x20200BA
00166f 5051      	SUBI R21,LOW(1)
001670 e2e0      	LDI  R30,LOW(32)
001671 93ea      	ST   -Y,R30
001672 940e 246e 	CALL SUBOPT_0xA2
001674 cff6      	RJMP _0x20200B8
                 _0x20200BA:
                 _0x20200B7:
                 _0x20200BB:
                 _0x2020059:
001675 e010      	LDI  R17,LOW(0)
                 _0x2020057:
                 _0x202003A:
001676 cd92      	RJMP _0x2020035
                 _0x2020037:
001677 940e 2892 	CALL __LOADLOCR6
001679 96ef      	ADIW R28,63
00167a 966d      	ADIW R28,29
00167b 9508      	RET
                 _vsprintf:
00167c 9722      	SBIW R28,2
00167d 81ee      	LDD  R30,Y+6
00167e 81ff      	LDD  R31,Y+6+1
00167f 83e8      	ST   Y,R30
001680 83f9      	STD  Y+1,R31
001681 940e 24c7 	CALL SUBOPT_0xAD
001683 940e 24c7 	CALL SUBOPT_0xAD
001685 01fe      	MOVW R30,R28
001686 9634      	ADIW R30,4
001687 940e 24cc 	CALL SUBOPT_0xAE
001689 940e 13fc 	CALL __print_G101
00168b 81a8      	LD   R26,Y
00168c 81b9      	LDD  R27,Y+1
00168d e0e0      	LDI  R30,LOW(0)
00168e 93ec      	ST   X,R30
00168f 9628      	ADIW R28,8
001690 9508      	RET
                 
                 	.CSEG
                 _abs:
001691 91e9          ld   r30,y+
001692 91f9          ld   r31,y+
001693 9730          sbiw r30,0
001694 f41a          brpl __abs0
001695 95e0          com  r30
001696 95f0          com  r31
001697 9631          adiw r30,1
                 __abs0:
001698 9508          ret
                 _ftoa:
001699 940e 23e7 	CALL SUBOPT_0x91
00169b e0e0      	LDI  R30,LOW(0)
00169c 83ea      	STD  Y+2,R30
00169d e3ef      	LDI  R30,LOW(63)
00169e 83eb      	STD  Y+3,R30
00169f 931a      	ST   -Y,R17
0016a0 930a      	ST   -Y,R16
0016a1 85eb      	LDD  R30,Y+11
0016a2 85fc      	LDD  R31,Y+11+1
0016a3 3fef      	CPI  R30,LOW(0xFFFF)
0016a4 efaf      	LDI  R26,HIGH(0xFFFF)
0016a5 07fa      	CPC  R31,R26
0016a6 f011      	BREQ PC+3
0016a7 940c 16b2 	JMP _0x204000D
0016a9 81ee      	LDD  R30,Y+6
0016aa 81ff      	LDD  R31,Y+6+1
0016ab 93fa      	ST   -Y,R31
0016ac 93ea      	ST   -Y,R30
                +
0016ad e3ee     +LDI R30 , LOW ( 2 * _0x2040000 + 0 )
0016ae e0f5     +LDI R31 , HIGH ( 2 * _0x2040000 + 0 )
                 	__POINTW1FN _0x2040000,0
0016af 940e 24cf 	CALL SUBOPT_0xAF
0016b1 9508      	RET
                 _0x204000D:
0016b2 3fef      	CPI  R30,LOW(0x7FFF)
0016b3 e7af      	LDI  R26,HIGH(0x7FFF)
0016b4 07fa      	CPC  R31,R26
0016b5 f011      	BREQ PC+3
0016b6 940c 16c1 	JMP _0x204000C
0016b8 81ee      	LDD  R30,Y+6
0016b9 81ff      	LDD  R31,Y+6+1
0016ba 93fa      	ST   -Y,R31
0016bb 93ea      	ST   -Y,R30
                +
0016bc e3ef     +LDI R30 , LOW ( 2 * _0x2040000 + 1 )
0016bd e0f5     +LDI R31 , HIGH ( 2 * _0x2040000 + 1 )
                 	__POINTW1FN _0x2040000,1
0016be 940e 24cf 	CALL SUBOPT_0xAF
0016c0 9508      	RET
                 _0x204000C:
0016c1 85ac      	LDD  R26,Y+12
0016c2 23aa      	TST  R26
0016c3 f012      	BRMI PC+3
0016c4 940c 16d2 	JMP _0x204000F
                +
0016c6 85e9     +LDD R30 , Y + 9
0016c7 85fa     +LDD R31 , Y + 9 + 1
0016c8 856b     +LDD R22 , Y + 9 + 2
0016c9 857c     +LDD R23 , Y + 9 + 3
                 	__GETD1S 9
0016ca 940e 26cc 	CALL __ANEGF1
0016cc 940e 24d7 	CALL SUBOPT_0xB0
0016ce 940e 24dc 	CALL SUBOPT_0xB1
0016d0 e2ed      	LDI  R30,LOW(45)
0016d1 93ec      	ST   X,R30
                 _0x204000F:
0016d2 85a8      	LDD  R26,Y+8
0016d3 30a7      	CPI  R26,LOW(0x7)
0016d4 f410      	BRSH PC+3
0016d5 940c 16d9 	JMP _0x2040010
0016d7 e0e6      	LDI  R30,LOW(6)
0016d8 87e8      	STD  Y+8,R30
                 _0x2040010:
0016d9 8518      	LDD  R17,Y+8
                 _0x2040011:
0016da 2fe1      	MOV  R30,R17
0016db 5011      	SUBI R17,1
0016dc 30e0      	CPI  R30,0
0016dd f411      	BRNE PC+3
0016de 940c 16e7 	JMP _0x2040013
0016e0 940e 24e3 	CALL SUBOPT_0xB2
0016e2 940e 2437 	CALL SUBOPT_0x9B
0016e4 940e 24e8 	CALL SUBOPT_0xB3
0016e6 cff3      	RJMP _0x2040011
                 _0x2040013:
0016e7 940e 24ed 	CALL SUBOPT_0xB4
0016e9 940e 2772 	CALL __ADDF12
0016eb 940e 24d7 	CALL SUBOPT_0xB0
0016ed e010      	LDI  R17,LOW(0)
                +
0016ee e0e0     +LDI R30 , LOW ( 0x3F800000 )
0016ef e0f0     +LDI R31 , HIGH ( 0x3F800000 )
0016f0 e860     +LDI R22 , BYTE3 ( 0x3F800000 )
0016f1 e37f     +LDI R23 , BYTE4 ( 0x3F800000 )
                 	__GETD1N 0x3F800000
0016f2 940e 24e8 	CALL SUBOPT_0xB3
                 _0x2040014:
0016f4 940e 24ed 	CALL SUBOPT_0xB4
0016f6 940e 2853 	CALL __CMPF12
0016f8 f410      	BRSH PC+3
0016f9 940c 1703 	JMP _0x2040016
0016fb 940e 24e3 	CALL SUBOPT_0xB2
0016fd 940e 2424 	CALL SUBOPT_0x98
0016ff 940e 24e8 	CALL SUBOPT_0xB3
001701 5f1f      	SUBI R17,-LOW(1)
001702 cff1      	RJMP _0x2040014
                 _0x2040016:
001703 3010      	CPI  R17,0
001704 f011      	BREQ PC+3
001705 940c 170c 	JMP _0x2040017
001707 940e 24dc 	CALL SUBOPT_0xB1
001709 e3e0      	LDI  R30,LOW(48)
00170a 93ec      	ST   X,R30
00170b c02d      	RJMP _0x2040018
                 _0x2040017:
                 _0x2040019:
00170c 2fe1      	MOV  R30,R17
00170d 5011      	SUBI R17,1
00170e 30e0      	CPI  R30,0
00170f f411      	BRNE PC+3
001710 940c 1739 	JMP _0x204001B
001712 940e 24e3 	CALL SUBOPT_0xB2
001714 940e 2437 	CALL SUBOPT_0x9B
001716 940e 2430 	CALL SUBOPT_0x9A
001718 940e 26ba 	CALL __PUTPARD1
00171a 940e 12c8 	CALL _floor
00171c 940e 24e8 	CALL SUBOPT_0xB3
00171e 940e 24ed 	CALL SUBOPT_0xB4
001720 940e 280e 	CALL __DIVF21
001722 940e 26ff 	CALL __CFD1U
001724 2f0e      	MOV  R16,R30
001725 940e 24dc 	CALL SUBOPT_0xB1
001727 940e 2445 	CALL SUBOPT_0x9D
001729 940e 24e3 	CALL SUBOPT_0xB2
00172b 27ff      	CLR  R31
00172c 2766      	CLR  R22
00172d 2777      	CLR  R23
00172e 940e 2738 	CALL __CDF1
001730 940e 27c0 	CALL __MULF12
001732 940e 24f6 	CALL SUBOPT_0xB5
001734 940e 23e2 	CALL SUBOPT_0x90
001736 940e 24d7 	CALL SUBOPT_0xB0
001738 cfd3      	RJMP _0x2040019
                 _0x204001B:
                 _0x2040018:
001739 85e8      	LDD  R30,Y+8
00173a 30e0      	CPI  R30,0
00173b f011      	BREQ PC+3
00173c 940c 1741 	JMP _0x204001C
00173e 940e 24fb 	CALL SUBOPT_0xB6
001740 9508      	RET
                 _0x204001C:
001741 940e 24dc 	CALL SUBOPT_0xB1
001743 e2ee      	LDI  R30,LOW(46)
001744 93ec      	ST   X,R30
                 _0x204001D:
001745 85e8      	LDD  R30,Y+8
001746 50e1      	SUBI R30,LOW(1)
001747 87e8      	STD  Y+8,R30
001748 5fef      	SUBI R30,-LOW(1)
001749 f411      	BRNE PC+3
00174a 940c 1769 	JMP _0x204001F
00174c 940e 24f6 	CALL SUBOPT_0xB5
00174e 940e 2424 	CALL SUBOPT_0x98
001750 940e 24d7 	CALL SUBOPT_0xB0
                +
001752 85e9     +LDD R30 , Y + 9
001753 85fa     +LDD R31 , Y + 9 + 1
001754 856b     +LDD R22 , Y + 9 + 2
001755 857c     +LDD R23 , Y + 9 + 3
                 	__GETD1S 9
001756 940e 26ff 	CALL __CFD1U
001758 2f0e      	MOV  R16,R30
001759 940e 24dc 	CALL SUBOPT_0xB1
00175b 940e 2445 	CALL SUBOPT_0x9D
00175d 940e 24f6 	CALL SUBOPT_0xB5
00175f 27ff      	CLR  R31
001760 2766      	CLR  R22
001761 2777      	CLR  R23
001762 940e 2738 	CALL __CDF1
001764 940e 23e2 	CALL SUBOPT_0x90
001766 940e 24d7 	CALL SUBOPT_0xB0
001768 cfdc      	RJMP _0x204001D
                 _0x204001F:
001769 940e 24fb 	CALL SUBOPT_0xB6
00176b 9508      	RET
                 
                 	.DSEG
                 
                 	.CSEG
                 
                 	.CSEG
                 _strcpyf:
00176c 91e9          ld   r30,y+
00176d 91f9          ld   r31,y+
00176e 91a9          ld   r26,y+
00176f 91b9          ld   r27,y+
001770 01cd          movw r24,r26
                 strcpyf0:
001771 9005      	lpm  r0,z+
001772 920d          st   x+,r0
001773 2000          tst  r0
001774 f7e1          brne strcpyf0
001775 01fc          movw r30,r24
001776 9508          ret
                 _strlen:
001777 91a9          ld   r26,y+
001778 91b9          ld   r27,y+
001779 27ee          clr  r30
00177a 27ff          clr  r31
                 strlen0:
00177b 916d          ld   r22,x+
00177c 2366          tst  r22
00177d f011          breq strlen1
00177e 9631          adiw r30,1
00177f cffb          rjmp strlen0
                 strlen1:
001780 9508          ret
                 _strlenf:
001781 27aa          clr  r26
001782 27bb          clr  r27
001783 91e9          ld   r30,y+
001784 91f9          ld   r31,y+
                 strlenf0:
001785 9005          lpm  r0,z+
001786 2000          tst  r0
001787 f011          breq strlenf1
001788 9611          adiw r26,1
001789 cffb          rjmp strlenf0
                 strlenf1:
00178a 01fd          movw r30,r26
00178b 9508          ret
                 _strncmpf:
00178c 2400          clr  r0
00178d 2411          clr  r1
00178e 9169          ld   r22,y+
00178f 91e9          ld   r30,y+
001790 91f9          ld   r31,y+
001791 91a9          ld   r26,y+
001792 91b9          ld   r27,y+
                 strncmpf0:
001793 2366          tst  r22
001794 f049          breq strncmpf1
001795 956a          dec  r22
001796 901d          ld   r1,x+
001797 9005      	lpm  r0,z+
001798 1401          cp   r0,r1
001799 f421          brne strncmpf1
00179a 2000          tst  r0
00179b f7b9          brne strncmpf0
                 strncmpf3:
00179c 27ee          clr  r30
00179d 9508          ret
                 strncmpf1:
00179e 1810          sub  r1,r0
00179f f3e1          breq strncmpf3
0017a0 e0e1          ldi  r30,1
0017a1 f408          brcc strncmpf2
0017a2 50e2          subi r30,2
                 strncmpf2:
0017a3 9508          ret
                 	#ifndef __SLEEP_DEFINED__
                 	#endif
                 
                 	.CSEG
                 _usart0_rx_isr:
0017a4 93aa      	ST   -Y,R26
0017a5 93ba      	ST   -Y,R27
0017a6 93ea      	ST   -Y,R30
0017a7 93fa      	ST   -Y,R31
0017a8 b7ef      	IN   R30,SREG
0017a9 93ea      	ST   -Y,R30
0017aa 931a      	ST   -Y,R17
0017ab 930a      	ST   -Y,R16
0017ac 9110 00c0 	LDS  R17,192
0017ae 9100 00c6 	LDS  R16,198
0017b0 2fe1      	MOV  R30,R17
0017b1 71ec      	ANDI R30,LOW(0x1C)
0017b2 f011      	BREQ PC+3
0017b3 940c 17cc 	JMP _0x2080003
0017b5 91e0 0b5a 	LDS  R30,_QueueLast
0017b7 91f0 0b5b 	LDS  R31,_QueueLast+1
0017b9 5ae8      	SUBI R30,LOW(-_QueueData)
0017ba 4ff5      	SBCI R31,HIGH(-_QueueData)
0017bb 8300      	ST   Z,R16
0017bc e5aa      	LDI  R26,LOW(_QueueLast)
0017bd e0bb      	LDI  R27,HIGH(_QueueLast)
0017be 940e 2503 	CALL SUBOPT_0xB7
0017c0 30e0      	CPI  R30,LOW(0x100)
0017c1 e0a1      	LDI  R26,HIGH(0x100)
0017c2 07fa      	CPC  R31,R26
0017c3 f410      	BRSH PC+3
0017c4 940c 17cc 	JMP _0x2080004
0017c6 e0e0      	LDI  R30,LOW(0)
0017c7 e0f0      	LDI  R31,HIGH(0)
0017c8 93e0 0b5a 	STS  _QueueLast,R30
0017ca 93f0 0b5b 	STS  _QueueLast+1,R31
                 _0x2080004:
                 _0x2080003:
0017cc 9109      	LD   R16,Y+
0017cd 9119      	LD   R17,Y+
0017ce 91e9      	LD   R30,Y+
0017cf bfef      	OUT  SREG,R30
0017d0 91f9      	LD   R31,Y+
0017d1 91e9      	LD   R30,Y+
0017d2 91b9      	LD   R27,Y+
0017d3 91a9      	LD   R26,Y+
0017d4 9518      	RETI
                 _usart1_rx_isr:
0017d5 93ea      	ST   -Y,R30
0017d6 b7ef      	IN   R30,SREG
0017d7 93ea      	ST   -Y,R30
0017d8 931a      	ST   -Y,R17
0017d9 930a      	ST   -Y,R16
0017da 9110 00c8 	LDS  R17,200
0017dc 9100 00ce 	LDS  R16,206
0017de 2fe1      	MOV  R30,R17
0017df 71ec      	ANDI R30,LOW(0x1C)
0017e0 f011      	BREQ PC+3
0017e1 940c 17e3 	JMP _0x2080005
                 _0x2080005:
0017e3 9109      	LD   R16,Y+
0017e4 9119      	LD   R17,Y+
0017e5 91e9      	LD   R30,Y+
0017e6 bfef      	OUT  SREG,R30
0017e7 91e9      	LD   R30,Y+
0017e8 9518      	RETI
                 _timer0_ovf_isr:
0017e9 920a      	ST   -Y,R0
0017ea 921a      	ST   -Y,R1
0017eb 939a      	ST   -Y,R25
0017ec 93aa      	ST   -Y,R26
0017ed 93ba      	ST   -Y,R27
0017ee 93ea      	ST   -Y,R30
0017ef 93fa      	ST   -Y,R31
0017f0 b7ef      	IN   R30,SREG
0017f1 93ea      	ST   -Y,R30
0017f2 e8ee      	LDI  R30,LOW(142)
0017f3 bde6      	OUT  0x26,R30
0017f4 e0a0      	LDI  R26,LOW(_TickCount)
0017f5 e0ba      	LDI  R27,HIGH(_TickCount)
0017f6 940e 2503 	CALL SUBOPT_0xB7
0017f8 eaa7      	LDI  R26,LOW(_IntCount)
0017f9 e0bb      	LDI  R27,HIGH(_IntCount)
0017fa 940e 2503 	CALL SUBOPT_0xB7
0017fc 3fe4      	CPI  R30,LOW(0x1F4)
0017fd e0a1      	LDI  R26,HIGH(0x1F4)
0017fe 07fa      	CPC  R31,R26
0017ff f410      	BRSH PC+3
001800 940c 180b 	JMP _0x2080006
001802 e0e1      	LDI  R30,LOW(1)
001803 93e0 0ba6 	STS  _bHalfMainStart,R30
001805 e0e0      	LDI  R30,LOW(0)
001806 e0f0      	LDI  R31,HIGH(0)
001807 93e0 0ba7 	STS  _IntCount,R30
001809 93f0 0ba8 	STS  _IntCount+1,R31
                 _0x2080006:
00180b 91a0 0ba7 	LDS  R26,_IntCount
00180d 91b0 0ba8 	LDS  R27,_IntCount+1
00180f e0ea      	LDI  R30,LOW(10)
001810 e0f0      	LDI  R31,HIGH(10)
001811 940e 2693 	CALL __MODW21U
001813 9730      	SBIW R30,0
001814 f011      	BREQ PC+3
001815 940c 1888 	JMP _0x2080007
001817 b1e6      	IN   R30,0x6
001818 95e0      	COM  R30
001819 93e0 0ba9 	STS  _NewKey,R30
00181b 91e0 0bad 	LDS  R30,_OldKey
00181d 91a0 0ba9 	LDS  R26,_NewKey
00181f 17ea      	CP   R30,R26
001820 f011      	BREQ PC+3
001821 940c 1827 	JMP _0x2080008
001823 91e0 0ba9 	LDS  R30,_NewKey
001825 93e0 0b90 	STS  _Key,R30
                 _0x2080008:
001827 91e0 0ba9 	LDS  R30,_NewKey
001829 93e0 0bad 	STS  _OldKey,R30
00182b b1ef      	IN   R30,0xF
00182c 95e0      	COM  R30
00182d 93e0 0bab 	STS  _NewSensor,R30
00182f 91e0 0baf 	LDS  R30,_OldSensor
001831 91a0 0bab 	LDS  R26,_NewSensor
001833 17ea      	CP   R30,R26
001834 f011      	BREQ PC+3
001835 940c 183b 	JMP _0x2080009
001837 91e0 0bab 	LDS  R30,_NewSensor
001839 93e0 0b92 	STS  _Sensor,R30
                 _0x2080009:
00183b 91e0 0bab 	LDS  R30,_NewSensor
00183d 93e0 0baf 	STS  _OldSensor,R30
00183f 91e0 0109 	LDS  R30,265
001841 95e0      	COM  R30
001842 70ef      	ANDI R30,LOW(0xF)
001843 93e0 0baa 	STS  _NewExtKey,R30
001845 91e0 0bae 	LDS  R30,_OldExtKey
001847 91a0 0baa 	LDS  R26,_NewExtKey
001849 17ea      	CP   R30,R26
00184a f011      	BREQ PC+3
00184b 940c 1851 	JMP _0x208000A
00184d 91e0 0baa 	LDS  R30,_NewExtKey
00184f 93e0 0b91 	STS  _ExtKey,R30
                 _0x208000A:
001851 91e0 0baa 	LDS  R30,_NewExtKey
001853 93e0 0bae 	STS  _OldExtKey,R30
001855 b1e9      	IN   R30,0x9
001856 95e0      	COM  R30
001857 70e1      	ANDI R30,LOW(0x1)
001858 93e0 0bac 	STS  _NewEmo,R30
00185a 91e0 0bb0 	LDS  R30,_OldEmo
00185c 91a0 0bac 	LDS  R26,_NewEmo
00185e 17ea      	CP   R30,R26
00185f f011      	BREQ PC+3
001860 940c 1870 	JMP _0x208000B
001862 91e0 0bac 	LDS  R30,_NewEmo
001864 93e0 0b93 	STS  _Emo,R30
001866 91e0 0b93 	LDS  R30,_Emo
001868 30e0      	CPI  R30,0
001869 f411      	BRNE PC+3
00186a 940c 186f 	JMP _0x208000C
00186c e0e1      	LDI  R30,LOW(1)
00186d 93e0 0a55 	STS  _bEmoState,R30
                 _0x208000C:
00186f c011      	RJMP _0x208000D
                 _0x208000B:
001870 91e0 0a2d 	LDS  R30,_bRun
001872 30e0      	CPI  R30,0
001873 f011      	BREQ PC+3
001874 940c 187d 	JMP _0x208000F
001876 91a0 0a55 	LDS  R26,_bEmoState
001878 30a1      	CPI  R26,LOW(0x1)
001879 f011      	BREQ PC+3
00187a 940c 187d 	JMP _0x208000F
00187c c001      	RJMP _0x2080010
                 _0x208000F:
00187d c003      	RJMP _0x208000E
                 _0x2080010:
00187e e0e0      	LDI  R30,LOW(0)
00187f 93e0 0a55 	STS  _bEmoState,R30
                 _0x208000E:
                 _0x208000D:
001881 91e0 0bac 	LDS  R30,_NewEmo
001883 93e0 0bb0 	STS  _OldEmo,R30
001885 e0e1      	LDI  R30,LOW(1)
001886 93e0 0ba5 	STS  _bMainStart,R30
                 _0x2080007:
001888 91e9      	LD   R30,Y+
001889 bfef      	OUT  SREG,R30
00188a 91f9      	LD   R31,Y+
00188b 91e9      	LD   R30,Y+
00188c 91b9      	LD   R27,Y+
00188d 91a9      	LD   R26,Y+
00188e 9199      	LD   R25,Y+
00188f 9019      	LD   R1,Y+
001890 9009      	LD   R0,Y+
001891 9518      	RETI
                 _main:
001892 e8e0      	LDI  R30,LOW(128)
001893 93e0 0061 	STS  97,R30
001895 e0e0      	LDI  R30,LOW(0)
001896 93e0 0061 	STS  97,R30
001898 efe7      	LDI  R30,LOW(247)
001899 b9e2      	OUT  0x2,R30
00189a efeb      	LDI  R30,LOW(251)
00189b b9e1      	OUT  0x1,R30
00189c efef      	LDI  R30,LOW(255)
00189d b9e5      	OUT  0x5,R30
00189e e0e0      	LDI  R30,LOW(0)
00189f b9e4      	OUT  0x4,R30
0018a0 efef      	LDI  R30,LOW(255)
0018a1 b9e8      	OUT  0x8,R30
0018a2 e0e0      	LDI  R30,LOW(0)
0018a3 b9e7      	OUT  0x7,R30
0018a4 efef      	LDI  R30,LOW(255)
0018a5 b9eb      	OUT  0xB,R30
0018a6 e0e8      	LDI  R30,LOW(8)
0018a7 b9ea      	OUT  0xA,R30
0018a8 efef      	LDI  R30,LOW(255)
0018a9 b9ee      	OUT  0xE,R30
0018aa e0e2      	LDI  R30,LOW(2)
0018ab b9ed      	OUT  0xD,R30
0018ac efef      	LDI  R30,LOW(255)
0018ad bbe1      	OUT  0x11,R30
0018ae e0e0      	LDI  R30,LOW(0)
0018af bbe0      	OUT  0x10,R30
0018b0 e3ef      	LDI  R30,LOW(63)
0018b1 bbe4      	OUT  0x14,R30
0018b2 e0e0      	LDI  R30,LOW(0)
0018b3 bbe3      	OUT  0x13,R30
0018b4 efef      	LDI  R30,LOW(255)
0018b5 93e0 0102 	STS  258,R30
0018b7 93e0 0101 	STS  257,R30
0018b9 e0e0      	LDI  R30,LOW(0)
0018ba 93e0 0105 	STS  261,R30
0018bc efef      	LDI  R30,LOW(255)
0018bd 93e0 0104 	STS  260,R30
0018bf e0e0      	LDI  R30,LOW(0)
0018c0 93e0 0108 	STS  264,R30
0018c2 efef      	LDI  R30,LOW(255)
0018c3 93e0 0107 	STS  263,R30
0018c5 93e0 010b 	STS  267,R30
0018c7 e0e0      	LDI  R30,LOW(0)
0018c8 93e0 010a 	STS  266,R30
0018ca bde4      	OUT  0x24,R30
0018cb e0e3      	LDI  R30,LOW(3)
0018cc bde5      	OUT  0x25,R30
0018cd e8ee      	LDI  R30,LOW(142)
0018ce bde6      	OUT  0x26,R30
0018cf e0e0      	LDI  R30,LOW(0)
0018d0 bde7      	OUT  0x27,R30
0018d1 bde8      	OUT  0x28,R30
0018d2 93e0 0080 	STS  128,R30
0018d4 93e0 0081 	STS  129,R30
0018d6 93e0 0085 	STS  133,R30
0018d8 93e0 0084 	STS  132,R30
0018da 93e0 0087 	STS  135,R30
0018dc 93e0 0086 	STS  134,R30
0018de 93e0 0089 	STS  137,R30
0018e0 93e0 0088 	STS  136,R30
0018e2 93e0 008b 	STS  139,R30
0018e4 93e0 008a 	STS  138,R30
0018e6 93e0 008d 	STS  141,R30
0018e8 93e0 008c 	STS  140,R30
0018ea 93e0 00b6 	STS  182,R30
0018ec 93e0 00b0 	STS  176,R30
0018ee 93e0 00b1 	STS  177,R30
0018f0 93e0 00b2 	STS  178,R30
0018f2 93e0 00b3 	STS  179,R30
0018f4 93e0 00b4 	STS  180,R30
0018f6 93e0 0090 	STS  144,R30
0018f8 93e0 0091 	STS  145,R30
0018fa 93e0 0095 	STS  149,R30
0018fc 93e0 0094 	STS  148,R30
0018fe 93e0 0097 	STS  151,R30
001900 93e0 0096 	STS  150,R30
001902 93e0 0099 	STS  153,R30
001904 93e0 0098 	STS  152,R30
001906 93e0 009b 	STS  155,R30
001908 93e0 009a 	STS  154,R30
00190a 93e0 009d 	STS  157,R30
00190c 93e0 009c 	STS  156,R30
00190e 93e0 00a0 	STS  160,R30
001910 93e0 00a1 	STS  161,R30
001912 93e0 00a5 	STS  165,R30
001914 93e0 00a4 	STS  164,R30
001916 93e0 00a7 	STS  167,R30
001918 93e0 00a6 	STS  166,R30
00191a 93e0 00a9 	STS  169,R30
00191c 93e0 00a8 	STS  168,R30
00191e 93e0 00ab 	STS  171,R30
001920 93e0 00aa 	STS  170,R30
001922 93e0 00ad 	STS  173,R30
001924 93e0 00ac 	STS  172,R30
001926 93e0 0120 	STS  288,R30
001928 93e0 0121 	STS  289,R30
00192a 93e0 0125 	STS  293,R30
00192c 93e0 0124 	STS  292,R30
00192e 93e0 0127 	STS  295,R30
001930 93e0 0126 	STS  294,R30
001932 93e0 0129 	STS  297,R30
001934 93e0 0128 	STS  296,R30
001936 93e0 012b 	STS  299,R30
001938 93e0 012a 	STS  298,R30
00193a 93e0 012d 	STS  301,R30
00193c 93e0 012c 	STS  300,R30
00193e 93e0 0069 	STS  105,R30
001940 93e0 006a 	STS  106,R30
001942 bbed      	OUT  0x1D,R30
001943 93e0 006b 	STS  107,R30
001945 93e0 006c 	STS  108,R30
001947 93e0 006d 	STS  109,R30
001949 93e0 0068 	STS  104,R30
00194b e0e1      	LDI  R30,LOW(1)
00194c 93e0 006e 	STS  110,R30
00194e e0e0      	LDI  R30,LOW(0)
00194f 93e0 006f 	STS  111,R30
001951 93e0 0070 	STS  112,R30
001953 93e0 0071 	STS  113,R30
001955 93e0 0072 	STS  114,R30
001957 93e0 0073 	STS  115,R30
001959 93e0 00c0 	STS  192,R30
00195b e9e8      	LDI  R30,LOW(152)
00195c 93e0 00c1 	STS  193,R30
00195e e0e6      	LDI  R30,LOW(6)
00195f 93e0 00c2 	STS  194,R30
001961 e0e0      	LDI  R30,LOW(0)
001962 93e0 00c5 	STS  197,R30
001964 e0e3      	LDI  R30,LOW(3)
001965 93e0 00c4 	STS  196,R30
001967 e0e0      	LDI  R30,LOW(0)
001968 93e0 00c8 	STS  200,R30
00196a e9e8      	LDI  R30,LOW(152)
00196b 93e0 00c9 	STS  201,R30
00196d e0e6      	LDI  R30,LOW(6)
00196e 93e0 00ca 	STS  202,R30
001970 e0e0      	LDI  R30,LOW(0)
001971 93e0 00cd 	STS  205,R30
001973 e0e3      	LDI  R30,LOW(3)
001974 93e0 00cc 	STS  204,R30
001976 e0e0      	LDI  R30,LOW(0)
001977 93e0 00d1 	STS  209,R30
001979 93e0 0131 	STS  305,R30
00197b e8e0      	LDI  R30,LOW(128)
00197c bfe0      	OUT  0x30,R30
00197d e0e0      	LDI  R30,LOW(0)
00197e 93e0 007b 	STS  123,R30
001980 93e0 007f 	STS  127,R30
001982 93e0 007a 	STS  122,R30
001984 bdec      	OUT  0x2C,R30
001985 93e0 00bc 	STS  188,R30
001987 9478      	sei
001988 940e 1cb1 	CALL _HwInit
                 _0x2080011:
00198a 940e 03b7 	CALL _CommSubroutine
00198c 91e0 0ba5 	LDS  R30,_bMainStart
00198e 30e0      	CPI  R30,0
00198f f411      	BRNE PC+3
001990 940c 1997 	JMP _0x2080014
001992 e0e0      	LDI  R30,LOW(0)
001993 93e0 0ba5 	STS  _bMainStart,R30
001995 940e 1ec0 	CALL _UserMain
                 _0x2080014:
001997 91e0 0ba6 	LDS  R30,_bHalfMainStart
001999 30e0      	CPI  R30,0
00199a f411      	BRNE PC+3
00199b 940c 19a8 	JMP _0x2080015
00199d e0e0      	LDI  R30,LOW(0)
00199e 93e0 0ba6 	STS  _bHalfMainStart,R30
0019a0 91e0 0b94 	LDS  R30,_bBlink
0019a2 940e 260f 	CALL __LNEGB1
0019a4 93e0 0b94 	STS  _bBlink,R30
0019a6 940e 1f23 	CALL _HalfSecMain
                 _0x2080015:
0019a8 cfe1      	RJMP _0x2080011
                 _0x2080013:
                 _0x2080016:
0019a9 cfff      	RJMP _0x2080016
                 	#ifndef __SLEEP_DEFINED__
                 	#endif
                 
                 	.CSEG
                 _Delay:
0019aa 940e 2509 	CALL SUBOPT_0xB8
                +
0019ac e000     +LDI R16 , LOW ( 0 )
0019ad e010     +LDI R17 , HIGH ( 0 )
                 	__GETWRN 16,17,0
                 _0x20A0004:
0019ae 81ea      	LDD  R30,Y+2
0019af 81fb      	LDD  R31,Y+2+1
0019b0 170e      	CP   R16,R30
0019b1 071f      	CPC  R17,R31
0019b2 f010      	BRLO PC+3
0019b3 940c 19b8 	JMP _0x20A0005
                 _0x20A0003:
                +
0019b5 5f0f     +SUBI R16 , LOW ( - 1 )
0019b6 4f1f     +SBCI R17 , HIGH ( - 1 )
                 	__ADDWRN 16,17,1
0019b7 cff6      	RJMP _0x20A0004
                 _0x20A0005:
0019b8 8119      	LDD  R17,Y+1
0019b9 8108      	LDD  R16,Y+0
0019ba 9624      	ADIW R28,4
0019bb 9508      	RET
                 _DelayMs:
0019bc e0e0      	LDI  R30,LOW(0)
0019bd e0f0      	LDI  R31,HIGH(0)
0019be 93e0 0a00 	STS  _TickCount,R30
0019c0 93f0 0a01 	STS  _TickCount+1,R31
                 _0x20A0006:
0019c2 81e8      	LD   R30,Y
0019c3 81f9      	LDD  R31,Y+1
0019c4 91a0 0a00 	LDS  R26,_TickCount
0019c6 91b0 0a01 	LDS  R27,_TickCount+1
0019c8 17ae      	CP   R26,R30
0019c9 07bf      	CPC  R27,R31
0019ca f010      	BRLO PC+3
0019cb 940c 19ce 	JMP _0x20A0008
0019cd cff4      	RJMP _0x20A0006
                 _0x20A0008:
0019ce 9622      	ADIW R28,2
0019cf 9508      	RET
                 _Asc2Hex:
0019d0 81a8      	LD   R26,Y
0019d1 33a0      	CPI  R26,LOW(0x30)
0019d2 f414      	BRGE PC+3
0019d3 940c 19da 	JMP _0x20A000A
0019d5 33aa      	CPI  R26,LOW(0x3A)
0019d6 f014      	BRLT PC+3
0019d7 940c 19da 	JMP _0x20A000A
0019d9 c001      	RJMP _0x20A000B
                 _0x20A000A:
0019da c004      	RJMP _0x20A0009
                 _0x20A000B:
0019db 81e8      	LD   R30,Y
0019dc 53e0      	SUBI R30,LOW(48)
0019dd 9621      	ADIW R28,1
0019de 9508      	RET
                 _0x20A0009:
0019df 81a8      	LD   R26,Y
0019e0 34a1      	CPI  R26,LOW(0x41)
0019e1 f414      	BRGE PC+3
0019e2 940c 19e9 	JMP _0x20A000E
0019e4 35ab      	CPI  R26,LOW(0x5B)
0019e5 f014      	BRLT PC+3
0019e6 940c 19e9 	JMP _0x20A000E
0019e8 c001      	RJMP _0x20A000F
                 _0x20A000E:
0019e9 c005      	RJMP _0x20A000D
                 _0x20A000F:
0019ea 81e8      	LD   R30,Y
0019eb 54e1      	SUBI R30,LOW(65)
0019ec 5fe6      	SUBI R30,-LOW(10)
0019ed 9621      	ADIW R28,1
0019ee 9508      	RET
                 _0x20A000D:
0019ef 81a8      	LD   R26,Y
0019f0 36a1      	CPI  R26,LOW(0x61)
0019f1 f414      	BRGE PC+3
0019f2 940c 19f9 	JMP _0x20A0012
0019f4 37ab      	CPI  R26,LOW(0x7B)
0019f5 f014      	BRLT PC+3
0019f6 940c 19f9 	JMP _0x20A0012
0019f8 c001      	RJMP _0x20A0013
                 _0x20A0012:
0019f9 c005      	RJMP _0x20A0011
                 _0x20A0013:
0019fa 81e8      	LD   R30,Y
0019fb 56e1      	SUBI R30,LOW(97)
0019fc 5fe6      	SUBI R30,-LOW(10)
0019fd 9621      	ADIW R28,1
0019fe 9508      	RET
                 _0x20A0011:
0019ff efef      	LDI  R30,LOW(255)
001a00 9621      	ADIW R28,1
001a01 9508      	RET
                 _0x20A0014:
                 _0x20A0010:
                 _0x20A000C:
001a02 9621      	ADIW R28,1
001a03 9508      	RET
                 _SetEeprom:
                 _0x20A0019:
001a04 9bf9      	SBIS 0x1F,1
001a05 c001      	RJMP _0x20A001B
001a06 cffd      	RJMP _0x20A0019
                 _0x20A001B:
001a07 81e9      	LDD  R30,Y+1
001a08 81fa      	LDD  R31,Y+1+1
001a09 bdf2      	OUT  0x21+1,R31
001a0a bde1      	OUT  0x21,R30
001a0b 81e8      	LD   R30,Y
001a0c bde0      	OUT  0x20,R30
001a0d 9afa      	SBI  0x1F,2
001a0e 9af9      	SBI  0x1F,1
001a0f 9623      	ADIW R28,3
001a10 9508      	RET
                 _SetEeprom2:
001a11 81ea      	LDD  R30,Y+2
001a12 81fb      	LDD  R31,Y+2+1
001a13 93fa      	ST   -Y,R31
001a14 93ea      	ST   -Y,R30
001a15 81ea      	LDD  R30,Y+2
001a16 81fb      	LDD  R31,Y+2+1
001a17 93ea      	ST   -Y,R30
001a18 940e 1a04 	CALL _SetEeprom
001a1a 81ea      	LDD  R30,Y+2
001a1b 81fb      	LDD  R31,Y+2+1
001a1c 9631      	ADIW R30,1
001a1d 93fa      	ST   -Y,R31
001a1e 93ea      	ST   -Y,R30
001a1f 81ea      	LDD  R30,Y+2
001a20 81fb      	LDD  R31,Y+2+1
001a21 70e0      	ANDI R30,LOW(0xFF00)
001a22 2fef      	MOV  R30,R31
001a23 e0f0      	LDI  R31,0
001a24 93ea      	ST   -Y,R30
001a25 940e 1a04 	CALL _SetEeprom
001a27 9624      	ADIW R28,4
001a28 9508      	RET
                 _SetEeprom4:
001a29 940e 24c7 	CALL SUBOPT_0xAD
001a2b 940e 250e 	CALL SUBOPT_0xB9
                +
001a2d 7fef     +ANDI R30 , LOW ( 0xFF )
001a2e 70f0     +ANDI R31 , HIGH ( 0xFF )
001a2f 7060     +ANDI R22 , BYTE3 ( 0xFF )
001a30 7070     +ANDI R23 , BYTE4 ( 0xFF )
                 	__ANDD1N 0xFF
001a31 940e 2513 	CALL SUBOPT_0xBA
001a33 9631      	ADIW R30,1
001a34 940e 2519 	CALL SUBOPT_0xBB
                +
001a36 70e0     +ANDI R30 , LOW ( 0xFF00 )
001a37 7fff     +ANDI R31 , HIGH ( 0xFF00 )
001a38 7060     +ANDI R22 , BYTE3 ( 0xFF00 )
001a39 7070     +ANDI R23 , BYTE4 ( 0xFF00 )
                 	__ANDD1N 0xFF00
001a3a 01df      	MOVW R26,R30
001a3b 01cb      	MOVW R24,R22
001a3c e0e8      	LDI  R30,LOW(8)
001a3d 940e 25f3 	CALL __LSRD12
001a3f 940e 2513 	CALL SUBOPT_0xBA
001a41 9632      	ADIW R30,2
001a42 940e 2519 	CALL SUBOPT_0xBB
                +
001a44 70e0     +ANDI R30 , LOW ( 0xFF0000 )
001a45 70f0     +ANDI R31 , HIGH ( 0xFF0000 )
001a46 7f6f     +ANDI R22 , BYTE3 ( 0xFF0000 )
001a47 7070     +ANDI R23 , BYTE4 ( 0xFF0000 )
                 	__ANDD1N 0xFF0000
001a48 940e 25ff 	CALL __LSRD16
001a4a 940e 2513 	CALL SUBOPT_0xBA
001a4c 9633      	ADIW R30,3
001a4d 940e 2519 	CALL SUBOPT_0xBB
                +
001a4f 70e0     +ANDI R30 , LOW ( 0xFF000000 )
001a50 70f0     +ANDI R31 , HIGH ( 0xFF000000 )
001a51 7060     +ANDI R22 , BYTE3 ( 0xFF000000 )
001a52 7f7f     +ANDI R23 , BYTE4 ( 0xFF000000 )
                 	__ANDD1N 0xFF000000
001a53 01df      	MOVW R26,R30
001a54 01cb      	MOVW R24,R22
001a55 e1e8      	LDI  R30,LOW(24)
001a56 940e 25f3 	CALL __LSRD12
001a58 93ea      	ST   -Y,R30
001a59 940e 1a04 	CALL _SetEeprom
001a5b 9626      	ADIW R28,6
001a5c 9508      	RET
                 _GetEeprom:
001a5d 931a      	ST   -Y,R17
                 _0x20A0022:
001a5e 9bf9      	SBIS 0x1F,1
001a5f c001      	RJMP _0x20A0024
001a60 cffd      	RJMP _0x20A0022
                 _0x20A0024:
001a61 81e9      	LDD  R30,Y+1
001a62 81fa      	LDD  R31,Y+1+1
001a63 bdf2      	OUT  0x21+1,R31
001a64 bde1      	OUT  0x21,R30
001a65 9af8      	SBI  0x1F,0
001a66 b510      	IN   R17,32
001a67 2fe1      	MOV  R30,R17
001a68 8118      	LDD  R17,Y+0
001a69 9623      	ADIW R28,3
001a6a 9508      	RET
                 _GetEeprom2:
001a6b 940e 2509 	CALL SUBOPT_0xB8
001a6d 81ea      	LDD  R30,Y+2
001a6e 81fb      	LDD  R31,Y+2+1
001a6f 9631      	ADIW R30,1
001a70 940e 251c 	CALL SUBOPT_0xBC
001a72 2f0e      	MOV  R16,R30
001a73 2711      	CLR  R17
001a74 2f10      	MOV  R17,R16
001a75 2700      	CLR  R16
001a76 81ea      	LDD  R30,Y+2
001a77 81fb      	LDD  R31,Y+2+1
001a78 940e 251c 	CALL SUBOPT_0xBC
001a7a e0f0      	LDI  R31,0
                +
001a7b 2b0e     +OR R16 , R30
001a7c 2b1f     +OR R17 , R31
                 	__ORWRR 16,17,30,31
001a7d 01f8      	MOVW R30,R16
001a7e 8119      	LDD  R17,Y+1
001a7f 8108      	LDD  R16,Y+0
001a80 9624      	ADIW R28,4
001a81 9508      	RET
                 _GetEeprom4:
001a82 940e 23e7 	CALL SUBOPT_0x91
001a84 940e 2520 	CALL SUBOPT_0xBD
001a86 9633      	ADIW R30,3
001a87 940e 251c 	CALL SUBOPT_0xBC
001a89 27ff      	CLR  R31
001a8a 2766      	CLR  R22
001a8b 2777      	CLR  R23
001a8c 940e 2526 	CALL SUBOPT_0xBE
001a8e 9632      	ADIW R30,2
001a8f 940e 251c 	CALL SUBOPT_0xBC
001a91 940e 2532 	CALL SUBOPT_0xBF
001a93 940e 2526 	CALL SUBOPT_0xBE
001a95 9631      	ADIW R30,1
001a96 940e 251c 	CALL SUBOPT_0xBC
001a98 940e 2532 	CALL SUBOPT_0xBF
001a9a 940e 253a 	CALL SUBOPT_0xC0
001a9c e0e8      	LDI  R30,LOW(8)
001a9d 940e 25e7 	CALL __LSLD12
001a9f 940e 23d8 	CALL SUBOPT_0x8E
001aa1 940e 24c7 	CALL SUBOPT_0xAD
001aa3 940e 1a5d 	CALL _GetEeprom
001aa5 940e 2532 	CALL SUBOPT_0xBF
001aa7 940e 253d 	CALL SUBOPT_0xC1
001aa9 9626      	ADIW R28,6
001aaa 9508      	RET
                 _SerialTxChar:
001aab 81e8      	LD   R30,Y
001aac 30e0      	CPI  R30,0
001aad f011      	BREQ PC+3
001aae 940c 1ac2 	JMP _0x20A0028
                 _0x20A0029:
001ab0 91e0 00c0 	LDS  R30,192
001ab2 72e0      	ANDI R30,LOW(0x20)
001ab3 f011      	BREQ PC+3
001ab4 940c 1ab7 	JMP _0x20A002B
001ab6 cff9      	RJMP _0x20A0029
                 _0x20A002B:
001ab7 81e9      	LDD  R30,Y+1
001ab8 93e0 00c6 	STS  198,R30
                 _0x20A002C:
001aba 91e0 00c0 	LDS  R30,192
001abc 74e0      	ANDI R30,LOW(0x40)
001abd f011      	BREQ PC+3
001abe 940c 1ac1 	JMP _0x20A002E
001ac0 cff9      	RJMP _0x20A002C
                 _0x20A002E:
001ac1 c044      	RJMP _0x20A002F
                 _0x20A0028:
001ac2 81a8      	LD   R26,Y
001ac3 30a1      	CPI  R26,LOW(0x1)
001ac4 f011      	BREQ PC+3
001ac5 940c 1ad9 	JMP _0x20A0030
                 _0x20A0031:
001ac7 91e0 00c8 	LDS  R30,200
001ac9 72e0      	ANDI R30,LOW(0x20)
001aca f011      	BREQ PC+3
001acb 940c 1ace 	JMP _0x20A0033
001acd cff9      	RJMP _0x20A0031
                 _0x20A0033:
001ace 81e9      	LDD  R30,Y+1
001acf 93e0 00ce 	STS  206,R30
                 _0x20A0034:
001ad1 91e0 00c8 	LDS  R30,200
001ad3 74e0      	ANDI R30,LOW(0x40)
001ad4 f011      	BREQ PC+3
001ad5 940c 1ad8 	JMP _0x20A0036
001ad7 cff9      	RJMP _0x20A0034
                 _0x20A0036:
001ad8 c02d      	RJMP _0x20A0037
                 _0x20A0030:
001ad9 81a8      	LD   R26,Y
001ada 30a2      	CPI  R26,LOW(0x2)
001adb f011      	BREQ PC+3
001adc 940c 1af0 	JMP _0x20A0038
                 _0x20A0039:
001ade 91e0 00d0 	LDS  R30,208
001ae0 72e0      	ANDI R30,LOW(0x20)
001ae1 f011      	BREQ PC+3
001ae2 940c 1ae5 	JMP _0x20A003B
001ae4 cff9      	RJMP _0x20A0039
                 _0x20A003B:
001ae5 81e9      	LDD  R30,Y+1
001ae6 93e0 00d6 	STS  214,R30
                 _0x20A003C:
001ae8 91e0 00d0 	LDS  R30,208
001aea 74e0      	ANDI R30,LOW(0x40)
001aeb f011      	BREQ PC+3
001aec 940c 1aef 	JMP _0x20A003E
001aee cff9      	RJMP _0x20A003C
                 _0x20A003E:
001aef c016      	RJMP _0x20A003F
                 _0x20A0038:
001af0 81a8      	LD   R26,Y
001af1 30a3      	CPI  R26,LOW(0x3)
001af2 f011      	BREQ PC+3
001af3 940c 1b06 	JMP _0x20A0040
                 _0x20A0041:
001af5 91e0 0130 	LDS  R30,304
001af7 72e0      	ANDI R30,LOW(0x20)
001af8 f011      	BREQ PC+3
001af9 940c 1afc 	JMP _0x20A0043
001afb cff9      	RJMP _0x20A0041
                 _0x20A0043:
001afc 81e9      	LDD  R30,Y+1
001afd 93e0 0136 	STS  310,R30
                 _0x20A0044:
001aff 91e0 0130 	LDS  R30,304
001b01 74e0      	ANDI R30,LOW(0x40)
001b02 f011      	BREQ PC+3
001b03 940c 1b06 	JMP _0x20A0046
001b05 cff9      	RJMP _0x20A0044
                 _0x20A0046:
                 _0x20A0040:
                 _0x20A003F:
                 _0x20A0037:
                 _0x20A002F:
001b06 9622      	ADIW R28,2
001b07 9508      	RET
                 _Sputs:
                 _0x20A0047:
001b08 81a9      	LDD  R26,Y+1
001b09 81ba      	LDD  R27,Y+1+1
001b0a 91ec      	LD   R30,X
001b0b 30e0      	CPI  R30,0
001b0c f411      	BRNE PC+3
001b0d 940c 1b1a 	JMP _0x20A0049
001b0f 93ea      	ST   -Y,R30
001b10 81e9      	LDD  R30,Y+1
001b11 93ea      	ST   -Y,R30
001b12 940e 1aab 	CALL _SerialTxChar
001b14 81e9      	LDD  R30,Y+1
001b15 81fa      	LDD  R31,Y+1+1
001b16 9631      	ADIW R30,1
001b17 83e9      	STD  Y+1,R30
001b18 83fa      	STD  Y+1+1,R31
001b19 cfee      	RJMP _0x20A0047
                 _0x20A0049:
001b1a 9623      	ADIW R28,3
001b1b 9508      	RET
                 _Uartprintf0:
001b1c 92ff      	PUSH R15
001b1d 940e 2540 	CALL SUBOPT_0xC2
001b1f 01fe      	MOVW R30,R28
001b20 9632      	ADIW R30,2
001b21 93fa      	ST   -Y,R31
001b22 93ea      	ST   -Y,R30
001b23 e0e0      	LDI  R30,LOW(0)
001b24 93ea      	ST   -Y,R30
001b25 940e 1b08 	CALL _Sputs
001b27 8119      	LDD  R17,Y+1
001b28 8108      	LDD  R16,Y+0
001b29 96ef      	ADIW R28,63
001b2a 96a7      	ADIW R28,39
001b2b 90ff      	POP  R15
001b2c 9508      	RET
                 _Dac7512Write:
001b2d 940e 2509 	CALL SUBOPT_0xB8
001b2f 9810      	CBI  0x2,0
001b30 9a10      	SBI  0x2,0
001b31 9810      	CBI  0x2,0
                +
001b32 e000     +LDI R16 , LOW ( 0 )
001b33 e010     +LDI R17 , HIGH ( 0 )
                 	__GETWRN 16,17,0
                 _0x20A0054:
                +
001b34 3100     +CPI R16 , LOW ( 16 )
001b35 e0e0     +LDI R30 , HIGH ( 16 )
001b36 071e     +CPC R17 , R30
                 	__CPWRN 16,17,16
001b37 f014      	BRLT PC+3
001b38 940c 1b50 	JMP _0x20A0055
001b3a 2fe0      	MOV  R30,R16
001b3b e0a0      	LDI  R26,LOW(32768)
001b3c e8b0      	LDI  R27,HIGH(32768)
001b3d 940e 25de 	CALL __LSRW12
001b3f 81aa      	LDD  R26,Y+2
001b40 81bb      	LDD  R27,Y+2+1
001b41 23ea      	AND  R30,R26
001b42 23fb      	AND  R31,R27
001b43 9730      	SBIW R30,0
001b44 f411      	BRNE PC+3
001b45 940c 1b49 	JMP _0x20A0056
001b47 9a14      	SBI  0x2,4
001b48 c001      	RJMP _0x20A0057
                 _0x20A0056:
001b49 9814      	CBI  0x2,4
                 _0x20A0057:
001b4a 9813      	CBI  0x2,3
001b4b 9a13      	SBI  0x2,3
001b4c 9813      	CBI  0x2,3
                 _0x20A0053:
                +
001b4d 5f0f     +SUBI R16 , LOW ( - 1 )
001b4e 4f1f     +SBCI R17 , HIGH ( - 1 )
                 	__ADDWRN 16,17,1
001b4f cfe4      	RJMP _0x20A0054
                 _0x20A0055:
001b50 9a10      	SBI  0x2,0
001b51 8119      	LDD  R17,Y+1
001b52 8108      	LDD  R16,Y+0
001b53 9624      	ADIW R28,4
001b54 9508      	RET
                 _Ltc1865Read:
001b55 940e 288b 	CALL __SAVELOCR6
                +
001b57 e000     +LDI R16 , LOW ( 0 )
001b58 e010     +LDI R17 , HIGH ( 0 )
                 	__GETWRN 16,17,0
                +
001b59 e020     +LDI R18 , LOW ( 0 )
001b5a e030     +LDI R19 , HIGH ( 0 )
                 	__GETWRN 18,19,0
                +
001b5b e040     +LDI R20 , LOW ( 0 )
001b5c e050     +LDI R21 , HIGH ( 0 )
                 	__GETWRN 20,21,0
001b5d 9811      	CBI  0x2,1
001b5e 9a11      	SBI  0x2,1
001b5f 9811      	CBI  0x2,1
001b60 81ee      	LDD  R30,Y+6
001b61 81ff      	LDD  R31,Y+6+1
001b62 9730      	SBIW R30,0
001b63 f411      	BRNE PC+3
001b64 940c 1b69 	JMP _0x20A005D
                +
001b66 e020     +LDI R18 , LOW ( 49152 )
001b67 ec30     +LDI R19 , HIGH ( 49152 )
                 	__GETWRN 18,19,49152
001b68 c002      	RJMP _0x20A005E
                 _0x20A005D:
                +
001b69 e020     +LDI R18 , LOW ( 32768 )
001b6a e830     +LDI R19 , HIGH ( 32768 )
                 	__GETWRN 18,19,32768
                 _0x20A005E:
                +
001b6b e040     +LDI R20 , LOW ( 0 )
001b6c e050     +LDI R21 , HIGH ( 0 )
                 	__GETWRN 20,21,0
                 _0x20A0060:
                +
001b6d 3140     +CPI R20 , LOW ( 16 )
001b6e e0e0     +LDI R30 , HIGH ( 16 )
001b6f 075e     +CPC R21 , R30
                 	__CPWRN 20,21,16
001b70 f014      	BRLT PC+3
001b71 940c 1b8e 	JMP _0x20A0061
001b73 0f00      	LSL  R16
001b74 1f11      	ROL  R17
001b75 2fe4      	MOV  R30,R20
001b76 e0a0      	LDI  R26,LOW(32768)
001b77 e8b0      	LDI  R27,HIGH(32768)
001b78 940e 25de 	CALL __LSRW12
001b7a 23e2      	AND  R30,R18
001b7b 23f3      	AND  R31,R19
001b7c 9730      	SBIW R30,0
001b7d f411      	BRNE PC+3
001b7e 940c 1b82 	JMP _0x20A0062
001b80 9a14      	SBI  0x2,4
001b81 c001      	RJMP _0x20A0063
                 _0x20A0062:
001b82 9814      	CBI  0x2,4
                 _0x20A0063:
001b83 9b02      	SBIS 0x0,2
001b84 c002      	RJMP _0x20A0064
001b85 6001      	ORI  R16,LOW(1)
001b86 c001      	RJMP _0x20A0065
                 _0x20A0064:
001b87 6000      	ORI  R16,LOW(0)
                 _0x20A0065:
001b88 9813      	CBI  0x2,3
001b89 9a13      	SBI  0x2,3
001b8a 9813      	CBI  0x2,3
                 _0x20A005F:
                +
001b8b 5f4f     +SUBI R20 , LOW ( - 1 )
001b8c 4f5f     +SBCI R21 , HIGH ( - 1 )
                 	__ADDWRN 20,21,1
001b8d cfdf      	RJMP _0x20A0060
                 _0x20A0061:
001b8e 9a11      	SBI  0x2,1
001b8f 01f8      	MOVW R30,R16
001b90 940e 2892 	CALL __LOADLOCR6
001b92 9628      	ADIW R28,8
001b93 9508      	RET
                 	#ifndef __SLEEP_DEFINED__
                 	#endif
                 
                 	.CSEG
                 _LcdCommandWrite:
001b94 940e 255c 	CALL SUBOPT_0xC3
001b96 9817      	CBI  0x2,7
001b97 81e8      	LD   R30,Y
001b98 93e0 0102 	STS  258,R30
001b9a 9a15      	SBI  0x2,5
001b9b 9815      	CBI  0x2,5
001b9c 940e 255c 	CALL SUBOPT_0xC3
001b9e 9621      	ADIW R28,1
001b9f 9508      	RET
                 _LcdDataWrite:
001ba0 e3e2      	LDI  R30,LOW(50)
001ba1 e0f0      	LDI  R31,HIGH(50)
001ba2 940e 2562 	CALL SUBOPT_0xC4
001ba4 9a17      	SBI  0x2,7
001ba5 81e8      	LD   R30,Y
001ba6 93e0 0102 	STS  258,R30
001ba8 9a15      	SBI  0x2,5
001ba9 9815      	CBI  0x2,5
001baa 9621      	ADIW R28,1
001bab 9508      	RET
                 _LcdInit:
001bac 940e 2566 	CALL SUBOPT_0xC5
001bae 9816      	CBI  0x2,6
001baf 9815      	CBI  0x2,5
001bb0 940e 2566 	CALL SUBOPT_0xC5
001bb2 e3e8      	LDI  R30,LOW(56)
001bb3 93ea      	ST   -Y,R30
001bb4 940e 1b94 	CALL _LcdCommandWrite
001bb6 940e 2566 	CALL SUBOPT_0xC5
001bb8 940e 20ef 	CALL SUBOPT_0x2F
001bba 940e 2566 	CALL SUBOPT_0xC5
001bbc e0e1      	LDI  R30,LOW(1)
001bbd 93ea      	ST   -Y,R30
001bbe 940e 1b94 	CALL _LcdCommandWrite
001bc0 e0e6      	LDI  R30,LOW(6)
001bc1 93ea      	ST   -Y,R30
001bc2 940e 1b94 	CALL _LcdCommandWrite
001bc4 940e 2566 	CALL SUBOPT_0xC5
001bc6 9508      	RET
                 _LineDecision:
001bc7 81e8      	LD   R30,Y
001bc8 30e0      	CPI  R30,0
001bc9 f011      	BREQ PC+3
001bca 940c 1bd2 	JMP _0x20C0006
001bcc 81e9      	LDD  R30,Y+1
001bcd 58e0      	SUBI R30,-LOW(128)
001bce 93ea      	ST   -Y,R30
001bcf 940e 1b94 	CALL _LcdCommandWrite
001bd1 c01e      	RJMP _0x20C0005
                 _0x20C0006:
001bd2 30e1      	CPI  R30,LOW(0x1)
001bd3 f011      	BREQ PC+3
001bd4 940c 1bdc 	JMP _0x20C0007
001bd6 81e9      	LDD  R30,Y+1
001bd7 54e0      	SUBI R30,-LOW(192)
001bd8 93ea      	ST   -Y,R30
001bd9 940e 1b94 	CALL _LcdCommandWrite
001bdb c014      	RJMP _0x20C0005
                 _0x20C0007:
001bdc 30e2      	CPI  R30,LOW(0x2)
001bdd f011      	BREQ PC+3
001bde 940c 1be7 	JMP _0x20C0008
001be0 81e9      	LDD  R30,Y+1
001be1 56ec      	SUBI R30,-LOW(148)
001be2 93ea      	ST   -Y,R30
001be3 940e 1b94 	CALL _LcdCommandWrite
001be5 c00a      	RJMP _0x20C0005
                 _0x20C0009:
001be6 c004      	RJMP _0x20C000A
                 _0x20C0008:
001be7 30e3      	CPI  R30,LOW(0x3)
001be8 f011      	BREQ PC+3
001be9 940c 1be6 	JMP _0x20C0009
                 _0x20C000A:
001beb 81e9      	LDD  R30,Y+1
001bec 52ec      	SUBI R30,-LOW(212)
001bed 93ea      	ST   -Y,R30
001bee 940e 1b94 	CALL _LcdCommandWrite
                 _0x20C0005:
001bf0 9622      	ADIW R28,2
001bf1 9508      	RET
                 _LcdString:
                 _0x20C000C:
001bf2 81a8      	LD   R26,Y
001bf3 81b9      	LDD  R27,Y+1
001bf4 91ec      	LD   R30,X
001bf5 30e0      	CPI  R30,0
001bf6 f411      	BRNE PC+3
001bf7 940c 1c02 	JMP _0x20C000E
001bf9 93ea      	ST   -Y,R30
001bfa 940e 1ba0 	CALL _LcdDataWrite
001bfc 81e8      	LD   R30,Y
001bfd 81f9      	LDD  R31,Y+1
001bfe 9631      	ADIW R30,1
001bff 83e8      	ST   Y,R30
001c00 83f9      	STD  Y+1,R31
001c01 cff0      	RJMP _0x20C000C
                 _0x20C000E:
001c02 9622      	ADIW R28,2
001c03 9508      	RET
                 _Lcdprintf:
001c04 92ff      	PUSH R15
001c05 940e 2540 	CALL SUBOPT_0xC2
001c07 940e 2569 	CALL SUBOPT_0xC6
001c09 940e 2569 	CALL SUBOPT_0xC6
001c0b 940e 1bc7 	CALL _LineDecision
001c0d 01fe      	MOVW R30,R28
001c0e 9632      	ADIW R30,2
001c0f 93fa      	ST   -Y,R31
001c10 93ea      	ST   -Y,R30
001c11 940e 1bf2 	CALL _LcdString
001c13 8119      	LDD  R17,Y+1
001c14 8108      	LDD  R16,Y+0
001c15 96ef      	ADIW R28,63
001c16 96a7      	ADIW R28,39
001c17 90ff      	POP  R15
001c18 9508      	RET
                 _LcdClear:
001c19 e0e1      	LDI  R30,LOW(1)
001c1a 93ea      	ST   -Y,R30
001c1b 940e 1b94 	CALL _LcdCommandWrite
001c1d 9508      	RET
                 	#ifndef __SLEEP_DEFINED__
                 	#endif
                 
                 	.DSEG
                 
                 	.CSEG
                 _SetItv:
001c1e 940e 23e7 	CALL SUBOPT_0x91
001c20 940e 2520 	CALL SUBOPT_0xBD
001c22 9730      	SBIW R30,0
001c23 2766      	CLR  R22
001c24 2777      	CLR  R23
001c25 940e 253a 	CALL SUBOPT_0xC0
                +
001c27 efef     +LDI R30 , LOW ( 0xFFF )
001c28 e0ff     +LDI R31 , HIGH ( 0xFFF )
001c29 e060     +LDI R22 , BYTE3 ( 0xFFF )
001c2a e070     +LDI R23 , BYTE4 ( 0xFFF )
                 	__GETD1N 0xFFF
001c2b 940e 261c 	CALL __MULD12U
001c2d 940e 253a 	CALL SUBOPT_0xC0
                +
001c2f e8e4     +LDI R30 , LOW ( 0x384 )
001c30 e0f3     +LDI R31 , HIGH ( 0x384 )
001c31 e060     +LDI R22 , BYTE3 ( 0x384 )
001c32 e070     +LDI R23 , BYTE4 ( 0x384 )
                 	__GETD1N 0x384
001c33 940e 2662 	CALL __DIVD21U
001c35 940e 23d8 	CALL SUBOPT_0x8E
001c37 81e8      	LD   R30,Y
001c38 81f9      	LDD  R31,Y+1
001c39 93fa      	ST   -Y,R31
001c3a 93ea      	ST   -Y,R30
001c3b 940e 1b2d 	CALL _Dac7512Write
001c3d 9626      	ADIW R28,6
001c3e 9508      	RET
                 _GetItv:
001c3f 940e 23e7 	CALL SUBOPT_0x91
001c41 e0e0      	LDI  R30,LOW(0)
001c42 83ea      	STD  Y+2,R30
001c43 83eb      	STD  Y+3,R30
001c44 940e 1fd9 	CALL SUBOPT_0xA
001c46 940e 219e 	CALL SUBOPT_0x42
001c48 940e 23d8 	CALL SUBOPT_0x8E
001c4a 940e 21a6 	CALL SUBOPT_0x44
001c4c 940e 23dd 	CALL SUBOPT_0x8F
001c4e 940e 2886 	CALL __CPD21
001c50 f010      	BRLO PC+3
001c51 940c 1c57 	JMP _0x20E000B
001c53 940e 21a6 	CALL SUBOPT_0x44
001c55 940e 23d8 	CALL SUBOPT_0x8E
                 _0x20E000B:
001c57 940e 21b2 	CALL SUBOPT_0x46
001c59 940e 23dd 	CALL SUBOPT_0x8F
001c5b 940e 2881 	CALL __CPD12
001c5d f010      	BRLO PC+3
001c5e 940c 1c64 	JMP _0x20E000C
001c60 940e 21b2 	CALL SUBOPT_0x46
001c62 940e 23d8 	CALL SUBOPT_0x8E
                 _0x20E000C:
001c64 940e 2571 	CALL SUBOPT_0xC7
001c66 940e 23d3 	CALL SUBOPT_0x8D
001c68 940e 25c7 	CALL __SUBD12
001c6a 940e 253a 	CALL SUBOPT_0xC0
                +
001c6c e8e4     +LDI R30 , LOW ( 0x384 )
001c6d e0f3     +LDI R31 , HIGH ( 0x384 )
001c6e e060     +LDI R22 , BYTE3 ( 0x384 )
001c6f e070     +LDI R23 , BYTE4 ( 0x384 )
                 	__GETD1N 0x384
001c70 940e 261c 	CALL __MULD12U
001c72 940e 23d8 	CALL SUBOPT_0x8E
001c74 940e 2571 	CALL SUBOPT_0xC7
001c76 940e 21b2 	CALL SUBOPT_0x46
001c78 940e 25c7 	CALL __SUBD12
001c7a 940e 23dd 	CALL SUBOPT_0x8F
001c7c 940e 2662 	CALL __DIVD21U
001c7e 940e 253d 	CALL SUBOPT_0xC1
001c80 940e 253d 	CALL SUBOPT_0xC1
001c82 9624      	ADIW R28,4
001c83 9508      	RET
                 _FirstReturn:
001c84 940e 1bac 	CALL _LcdInit
001c86 940e 205b 	CALL SUBOPT_0x1C
                +
001c88 e5e4     +LDI R30 , LOW ( 2 * _0x20E0000 + 0 )
001c89 e0f5     +LDI R31 , HIGH ( 2 * _0x20E0000 + 0 )
                 	__POINTW1FN _0x20E0000,0
001c8a 940e 20cc 	CALL SUBOPT_0x2A
001c8c e1e2      	LDI  R30,LOW(18)
001c8d 93ea      	ST   -Y,R30
001c8e e0e0      	LDI  R30,LOW(0)
001c8f 93ea      	ST   -Y,R30
                +
001c90 e6e7     +LDI R30 , LOW ( 2 * _0x20E0000 + 19 )
001c91 e0f5     +LDI R31 , HIGH ( 2 * _0x20E0000 + 19 )
                 	__POINTW1FN _0x20E0000,19
001c92 940e 20cc 	CALL SUBOPT_0x2A
001c94 940e 2079 	CALL SUBOPT_0x20
                +
001c96 e6ea     +LDI R30 , LOW ( 2 * _0x20E0000 + 22 )
001c97 e0f5     +LDI R31 , HIGH ( 2 * _0x20E0000 + 22 )
                 	__POINTW1FN _0x20E0000,22
001c98 940e 20cc 	CALL SUBOPT_0x2A
001c9a 940e 20d3 	CALL SUBOPT_0x2B
                +
001c9c e7e5     +LDI R30 , LOW ( 2 * _0x20E0000 + 33 )
001c9d e0f5     +LDI R31 , HIGH ( 2 * _0x20E0000 + 33 )
                 	__POINTW1FN _0x20E0000,33
001c9e 940e 20cc 	CALL SUBOPT_0x2A
001ca0 940e 20ef 	CALL SUBOPT_0x2F
001ca2 940e 1fd9 	CALL SUBOPT_0xA
001ca4 940e 1c1e 	CALL _SetItv
001ca6 940e 1fde 	CALL SUBOPT_0xB
001ca8 940e 204a 	CALL SUBOPT_0x1A
001caa 940e 257a 	CALL SUBOPT_0xC8
001cac 940e 20a7 	CALL SUBOPT_0x27
001cae 940e 257a 	CALL SUBOPT_0xC8
001cb0 9508      	RET
                 _HwInit:
001cb1 91e0 0105 	LDS  R30,261
001cb3 60e1      	ORI  R30,1
001cb4 93e0 0105 	STS  261,R30
001cb6 91e0 0105 	LDS  R30,261
001cb8 60e2      	ORI  R30,2
001cb9 93e0 0105 	STS  261,R30
001cbb 940e 2236 	CALL SUBOPT_0x57
001cbd 940e 222a 	CALL SUBOPT_0x55
001cbf 940e 2230 	CALL SUBOPT_0x56
001cc1 91e0 0108 	LDS  R30,264
001cc3 7feb      	ANDI R30,0xFB
001cc4 93e0 0108 	STS  264,R30
001cc6 940e 20a1 	CALL SUBOPT_0x26
001cc8 e0e0      	LDI  R30,LOW(0)
001cc9 93e0 0a55 	STS  _bEmoState,R30
001ccb 940e 1c84 	CALL _FirstReturn
001ccd efef      	LDI  R30,LOW(1023)
001cce e0f3      	LDI  R31,HIGH(1023)
001ccf 940e 2580 	CALL SUBOPT_0xC9
001cd1 9733      	SBIW R30,3
001cd2 f411      	BRNE PC+3
001cd3 940c 1d02 	JMP _0x20E000D
001cd5 940e 1fd9 	CALL SUBOPT_0xA
001cd7 940e 2353 	CALL SUBOPT_0x7C
001cd9 940e 231b 	CALL SUBOPT_0x74
001cdb 940e 2370 	CALL SUBOPT_0x80
001cdd 93fa      	ST   -Y,R31
001cde 93ea      	ST   -Y,R30
001cdf 940e 1a11 	CALL _SetEeprom2
001ce1 940e 2379 	CALL SUBOPT_0x82
001ce3 e0e6      	LDI  R30,LOW(6)
001ce4 e0f0      	LDI  R31,HIGH(6)
001ce5 93fa      	ST   -Y,R31
001ce6 93ea      	ST   -Y,R30
001ce7 91e0 0a3d 	LDS  R30,_sMode1Step
001ce9 940e 22e3 	CALL SUBOPT_0x70
001ceb 940e 207e 	CALL SUBOPT_0x21
001ced 940e 2359 	CALL SUBOPT_0x7D
001cef 940e 2091 	CALL SUBOPT_0x24
001cf1 940e 236a 	CALL SUBOPT_0x7F
001cf3 940e 22b6 	CALL SUBOPT_0x6A
001cf5 940e 22d2 	CALL SUBOPT_0x6E
001cf7 efef      	LDI  R30,LOW(1023)
001cf8 e0f3      	LDI  R31,HIGH(1023)
001cf9 93fa      	ST   -Y,R31
001cfa 93ea      	ST   -Y,R30
001cfb e0e3      	LDI  R30,LOW(3)
001cfc e0f0      	LDI  R31,HIGH(3)
001cfd 93fa      	ST   -Y,R31
001cfe 93ea      	ST   -Y,R30
001cff 940e 1a11 	CALL _SetEeprom2
001d01 c043      	RJMP _0x20E000E
                 _0x20E000D:
001d02 e0e4      	LDI  R30,LOW(4)
001d03 e0f0      	LDI  R31,HIGH(4)
001d04 940e 2580 	CALL SUBOPT_0xC9
001d06 93e0 0a24 	STS  _bAutoMode,R30
001d08 e0e6      	LDI  R30,LOW(6)
001d09 e0f0      	LDI  R31,HIGH(6)
001d0a 940e 2580 	CALL SUBOPT_0xC9
001d0c 93e0 0a3d 	STS  _sMode1Step,R30
001d0e 91a0 0a3d 	LDS  R26,_sMode1Step
001d10 30a5      	CPI  R26,LOW(0x5)
001d11 f410      	BRSH PC+3
001d12 940c 1d17 	JMP _0x20E000F
001d14 e0e4      	LDI  R30,LOW(4)
001d15 93e0 0a3d 	STS  _sMode1Step,R30
                 _0x20E000F:
001d17 940e 207e 	CALL SUBOPT_0x21
001d19 940e 2083 	CALL SUBOPT_0x22
001d1b 940e 2088 	CALL SUBOPT_0x23
001d1d 940e 2091 	CALL SUBOPT_0x24
001d1f 940e 2096 	CALL SUBOPT_0x25
001d21 e1e0      	LDI  R30,LOW(16)
001d22 e0f0      	LDI  R31,HIGH(16)
001d23 940e 2580 	CALL SUBOPT_0xC9
001d25 940e 22b1 	CALL SUBOPT_0x69
001d27 91a0 0a0a 	LDS  R26,_PressureStep
001d29 91b0 0a0b 	LDS  R27,_PressureStep+1
001d2b 971b      	SBIW R26,11
001d2c f410      	BRSH PC+3
001d2d 940c 1d33 	JMP _0x20E0010
001d2f e0e6      	LDI  R30,LOW(6)
001d30 e0f0      	LDI  R31,HIGH(6)
001d31 940e 22b1 	CALL SUBOPT_0x69
                 _0x20E0010:
001d33 e1e2      	LDI  R30,LOW(18)
001d34 e0f0      	LDI  R31,HIGH(18)
001d35 940e 2580 	CALL SUBOPT_0xC9
001d37 940e 22cd 	CALL SUBOPT_0x6D
001d39 91a0 0a0e 	LDS  R26,_sPressureStepDelay
001d3b 91b0 0a0f 	LDS  R27,_sPressureStepDelay+1
001d3d 971b      	SBIW R26,11
001d3e f410      	BRSH PC+3
001d3f 940c 1d45 	JMP _0x20E0011
001d41 e0e1      	LDI  R30,LOW(1)
001d42 e0f0      	LDI  R31,HIGH(1)
001d43 940e 22cd 	CALL SUBOPT_0x6D
                 _0x20E0011:
                 _0x20E000E:
001d45 91e0 0a3d 	LDS  R30,_sMode1Step
001d47 30e1      	CPI  R30,LOW(0x1)
001d48 f011      	BREQ PC+3
001d49 940c 1d4e 	JMP _0x20E0015
001d4b 940e 2584 	CALL SUBOPT_0xCA
001d4d c020      	RJMP _0x20E0014
                 _0x20E0015:
001d4e 30e3      	CPI  R30,LOW(0x3)
001d4f f011      	BREQ PC+3
001d50 940c 1d55 	JMP _0x20E0016
001d52 940e 2584 	CALL SUBOPT_0xCA
001d54 c019      	RJMP _0x20E0014
                 _0x20E0016:
001d55 30e2      	CPI  R30,LOW(0x2)
001d56 f011      	BREQ PC+3
001d57 940c 1d5e 	JMP _0x20E0017
001d59 940e 230e 	CALL SUBOPT_0x73
001d5b 940e 2301 	CALL SUBOPT_0x72
001d5d c010      	RJMP _0x20E0014
                 _0x20E0017:
001d5e 30e4      	CPI  R30,LOW(0x4)
001d5f f011      	BREQ PC+3
001d60 940c 1d6e 	JMP _0x20E0014
001d62 940e 1fd9 	CALL SUBOPT_0xA
001d64 940e 2083 	CALL SUBOPT_0x22
001d66 940e 2329 	CALL SUBOPT_0x76
001d68 940e 231b 	CALL SUBOPT_0x74
001d6a 940e 2083 	CALL SUBOPT_0x22
001d6c 940e 2320 	CALL SUBOPT_0x75
                 _0x20E0014:
                +
001d6e e8e2     +LDI R30 , LOW ( 2 * _0x20E0000 + 46 )
001d6f e0f5     +LDI R31 , HIGH ( 2 * _0x20E0000 + 46 )
                 	__POINTW1FN _0x20E0000,46
001d70 940e 1fb0 	CALL SUBOPT_0x6
                +
001d72 e8e5     +LDI R30 , LOW ( 2 * _0x20E0000 + 49 )
001d73 e0f5     +LDI R31 , HIGH ( 2 * _0x20E0000 + 49 )
                 	__POINTW1FN _0x20E0000,49
001d74 940e 1fb0 	CALL SUBOPT_0x6
                +
001d76 eae6     +LDI R30 , LOW ( 2 * _0x20E0000 + 82 )
001d77 e0f5     +LDI R31 , HIGH ( 2 * _0x20E0000 + 82 )
                 	__POINTW1FN _0x20E0000,82
001d78 940e 1fb0 	CALL SUBOPT_0x6
                +
001d7a ece7     +LDI R30 , LOW ( 2 * _0x20E0000 + 115 )
001d7b e0f5     +LDI R31 , HIGH ( 2 * _0x20E0000 + 115 )
                 	__POINTW1FN _0x20E0000,115
001d7c 940e 1fb0 	CALL SUBOPT_0x6
                +
001d7e eee8     +LDI R30 , LOW ( 2 * _0x20E0000 + 148 )
001d7f e0f5     +LDI R31 , HIGH ( 2 * _0x20E0000 + 148 )
                 	__POINTW1FN _0x20E0000,148
001d80 940e 1fb0 	CALL SUBOPT_0x6
                +
001d82 e8e5     +LDI R30 , LOW ( 2 * _0x20E0000 + 49 )
001d83 e0f5     +LDI R31 , HIGH ( 2 * _0x20E0000 + 49 )
                 	__POINTW1FN _0x20E0000,49
001d84 940e 1fb0 	CALL SUBOPT_0x6
                +
001d86 e6e7     +LDI R30 , LOW ( 2 * _0x20E0000 + 19 )
001d87 e0f5     +LDI R31 , HIGH ( 2 * _0x20E0000 + 19 )
                 	__POINTW1FN _0x20E0000,19
001d88 940e 1fb0 	CALL SUBOPT_0x6
                +
001d8a e0e9     +LDI R30 , LOW ( 2 * _0x20E0000 + 181 )
001d8b e0f6     +LDI R31 , HIGH ( 2 * _0x20E0000 + 181 )
                 	__POINTW1FN _0x20E0000,181
001d8c 940e 1fb0 	CALL SUBOPT_0x6
001d8e 940e 1bac 	CALL _LcdInit
001d90 940e 202c 	CALL SUBOPT_0x16
001d92 940e 1c3f 	CALL _GetItv
001d94 940e 2079 	CALL SUBOPT_0x20
001d96 940e 04ad 	CALL _SetBuzzer
001d98 e0e0      	LDI  R30,LOW(0)
001d99 93e0 0a21 	STS  _TestMode,R30
001d9b 93e0 0a1a 	STS  _bCalib,R30
001d9d 9508      	RET
                 _BuzzerSubroutine:
001d9e 91e0 0a4b 	LDS  R30,_BuzzerOnCount
001da0 91f0 0a4c 	LDS  R31,_BuzzerOnCount+1
001da2 9730      	SBIW R30,0
001da3 f411      	BRNE PC+3
001da4 940c 1dad 	JMP _0x20E0019
001da6 e4ab      	LDI  R26,LOW(_BuzzerOnCount)
001da7 e0ba      	LDI  R27,HIGH(_BuzzerOnCount)
001da8 940e 238f 	CALL SUBOPT_0x85
001daa 940e 258f 	CALL SUBOPT_0xCB
001dac c05a      	RJMP _0x20E001A
                 _0x20E0019:
001dad 91e0 0a4d 	LDS  R30,_BuzzerOffCount
001daf 91f0 0a4e 	LDS  R31,_BuzzerOffCount+1
001db1 9730      	SBIW R30,0
001db2 f411      	BRNE PC+3
001db3 940c 1dbc 	JMP _0x20E001B
001db5 e4ad      	LDI  R26,LOW(_BuzzerOffCount)
001db6 e0ba      	LDI  R27,HIGH(_BuzzerOffCount)
001db7 940e 238f 	CALL SUBOPT_0x85
001db9 940e 2595 	CALL SUBOPT_0xCC
001dbb c04b      	RJMP _0x20E001C
                 _0x20E001B:
001dbc 91e0 0a49 	LDS  R30,_BuzzerRepeatCount
001dbe 91f0 0a4a 	LDS  R31,_BuzzerRepeatCount+1
001dc0 9730      	SBIW R30,0
001dc1 f411      	BRNE PC+3
001dc2 940c 1dcb 	JMP _0x20E001D
001dc4 e4a9      	LDI  R26,LOW(_BuzzerRepeatCount)
001dc5 e0ba      	LDI  R27,HIGH(_BuzzerRepeatCount)
001dc6 940e 238f 	CALL SUBOPT_0x85
001dc8 940e 1fc8 	CALL SUBOPT_0x9
001dca c03c      	RJMP _0x20E001E
                 _0x20E001D:
001dcb 91e0 0a55 	LDS  R30,_bEmoState
001dcd 30e0      	CPI  R30,0
001dce f011      	BREQ PC+3
001dcf 940c 1dd8 	JMP _0x20E0020
001dd1 91e0 0a18 	LDS  R30,_bReturnSensor
001dd3 30e0      	CPI  R30,0
001dd4 f011      	BREQ PC+3
001dd5 940c 1dd8 	JMP _0x20E0020
001dd7 c012      	RJMP _0x20E001F
                 _0x20E0020:
001dd8 91e0 0a2d 	LDS  R30,_bRun
001dda 30e0      	CPI  R30,0
001ddb f411      	BRNE PC+3
001ddc 940c 1de9 	JMP _0x20E0022
001dde 91e0 0b94 	LDS  R30,_bBlink
001de0 30e0      	CPI  R30,0
001de1 f411      	BRNE PC+3
001de2 940c 1de7 	JMP _0x20E0023
001de4 940e 258f 	CALL SUBOPT_0xCB
001de6 c002      	RJMP _0x20E0024
                 _0x20E0023:
001de7 940e 2595 	CALL SUBOPT_0xCC
                 _0x20E0024:
                 _0x20E0022:
001de9 c01d      	RJMP _0x20E0025
                 _0x20E001F:
001dea 91e0 0a27 	LDS  R30,_bPressureFail
001dec 30e0      	CPI  R30,0
001ded f411      	BRNE PC+3
001dee 940c 1e05 	JMP _0x20E0026
001df0 91e0 0a2d 	LDS  R30,_bRun
001df2 30e0      	CPI  R30,0
001df3 f011      	BREQ PC+3
001df4 940c 1e02 	JMP _0x20E0027
001df6 91e0 0b94 	LDS  R30,_bBlink
001df8 30e0      	CPI  R30,0
001df9 f411      	BRNE PC+3
001dfa 940c 1dff 	JMP _0x20E0028
001dfc 940e 258f 	CALL SUBOPT_0xCB
001dfe c002      	RJMP _0x20E0029
                 _0x20E0028:
001dff 940e 2595 	CALL SUBOPT_0xCC
                 _0x20E0029:
001e01 c002      	RJMP _0x20E002A
                 _0x20E0027:
001e02 940e 258f 	CALL SUBOPT_0xCB
                 _0x20E002A:
001e04 c002      	RJMP _0x20E002B
                 _0x20E0026:
001e05 940e 2595 	CALL SUBOPT_0xCC
                 _0x20E002B:
                 _0x20E0025:
                 _0x20E001E:
                 _0x20E001C:
                 _0x20E001A:
001e07 9508      	RET
                 _CalibSubroutine:
001e08 940e 23e7 	CALL SUBOPT_0x91
001e0a e0e0      	LDI  R30,LOW(0)
001e0b 83ea      	STD  Y+2,R30
001e0c 83eb      	STD  Y+3,R30
001e0d 91e0 0a1a 	LDS  R30,_bCalib
001e0f 30e0      	CPI  R30,0
001e10 f411      	BRNE PC+3
001e11 940c 1ebe 	JMP _0x20E002C
001e13 91e0 0a1d 	LDS  R30,_CalibStepDelay
001e15 91f0 0a1e 	LDS  R31,_CalibStepDelay+1
001e17 9160 0a1f 	LDS  R22,_CalibStepDelay+2
001e19 9170 0a20 	LDS  R23,_CalibStepDelay+3
001e1b 940e 2873 	CALL __CPD10
001e1d f411      	BRNE PC+3
001e1e 940c 1e50 	JMP _0x20E002D
001e20 e1ad      	LDI  R26,LOW(_CalibStepDelay)
001e21 e0ba      	LDI  R27,HIGH(_CalibStepDelay)
001e22 940e 1ffb 	CALL SUBOPT_0xF
001e24 91a0 0a1c 	LDS  R26,_CalibStep
001e26 30a2      	CPI  R26,LOW(0x2)
001e27 f011      	BREQ PC+3
001e28 940c 1e4f 	JMP _0x20E002E
001e2a 940e 23b6 	CALL SUBOPT_0x89
001e2c 940e 23dd 	CALL SUBOPT_0x8F
                +
001e2e 3ca3     +CPI R26 , LOW ( 0x1C3 )
001e2f e0e1     +LDI R30 , HIGH ( 0x1C3 )
001e30 07be     +CPC R27 , R30
001e31 e0e0     +LDI R30 , BYTE3 ( 0x1C3 )
001e32 078e     +CPC R24 , R30
001e33 e0e0     +LDI R30 , BYTE4 ( 0x1C3 )
001e34 079e     +CPC R25 , R30
                 	__CPD2N 0x1C3
001e35 f410      	BRSH PC+3
001e36 940c 1e41 	JMP _0x20E002F
001e38 940e 259b 	CALL SUBOPT_0xCD
001e3a 940e 25a2 	CALL SUBOPT_0xCE
001e3c 940e 25c2 	CALL __ADDD12
001e3e 940e 2361 	CALL SUBOPT_0x7E
001e40 c00e      	RJMP _0x20E0030
                 _0x20E002F:
001e41 940e 259b 	CALL SUBOPT_0xCD
001e43 940e 25a2 	CALL SUBOPT_0xCE
001e45 940e 25cc 	CALL __SUBD21
001e47 93a0 0a14 	STS  _CalItvMax,R26
001e49 93b0 0a15 	STS  _CalItvMax+1,R27
001e4b 9380 0a16 	STS  _CalItvMax+2,R24
001e4d 9390 0a17 	STS  _CalItvMax+3,R25
                 _0x20E0030:
                 _0x20E002E:
001e4f c06e      	RJMP _0x20E0031
                 _0x20E002D:
001e50 91e0 0a1c 	LDS  R30,_CalibStep
001e52 30e0      	CPI  R30,0
001e53 f011      	BREQ PC+3
001e54 940c 1e65 	JMP _0x20E0035
001e56 940e 25b1 	CALL SUBOPT_0xCF
001e58 940e 1c1e 	CALL _SetItv
                +
001e5a edec     +LDI R30 , LOW ( 0x5DC )
001e5b e0f5     +LDI R31 , HIGH ( 0x5DC )
001e5c e060     +LDI R22 , BYTE3 ( 0x5DC )
001e5d e070     +LDI R23 , BYTE4 ( 0x5DC )
                 	__GETD1N 0x5DC
001e5e 940e 2380 	CALL SUBOPT_0x83
001e60 940e 205b 	CALL SUBOPT_0x1C
001e62 940e 04ad 	CALL _SetBuzzer
001e64 c059      	RJMP _0x20E0034
                 _0x20E0035:
001e65 30e1      	CPI  R30,LOW(0x1)
001e66 f011      	BREQ PC+3
001e67 940c 1e82 	JMP _0x20E0036
001e69 940e 25b1 	CALL SUBOPT_0xCF
001e6b 940e 219e 	CALL SUBOPT_0x42
001e6d 940e 2088 	CALL SUBOPT_0x23
001e6f 940e 207e 	CALL SUBOPT_0x21
001e71 940e 2359 	CALL SUBOPT_0x7D
001e73 ece2      	LDI  R30,LOW(450)
001e74 e0f1      	LDI  R31,HIGH(450)
001e75 940e 2028 	CALL SUBOPT_0x15
                +
001e77 efe4     +LDI R30 , LOW ( 0x1F4 )
001e78 e0f1     +LDI R31 , HIGH ( 0x1F4 )
001e79 e060     +LDI R22 , BYTE3 ( 0x1F4 )
001e7a e070     +LDI R23 , BYTE4 ( 0x1F4 )
                 	__GETD1N 0x1F4
001e7b 940e 2380 	CALL SUBOPT_0x83
001e7d 940e 205b 	CALL SUBOPT_0x1C
001e7f 940e 04ad 	CALL _SetBuzzer
001e81 c03c      	RJMP _0x20E0034
                 _0x20E0036:
001e82 30e2      	CPI  R30,LOW(0x2)
001e83 f011      	BREQ PC+3
001e84 940c 1e9b 	JMP _0x20E0037
001e86 91e0 0a1c 	LDS  R30,_CalibStep
001e88 5fef      	SUBI R30,-LOW(1)
001e89 93e0 0a1c 	STS  _CalibStep,R30
001e8b 940e 2091 	CALL SUBOPT_0x24
001e8d 940e 236a 	CALL SUBOPT_0x7F
001e8f 940e 202c 	CALL SUBOPT_0x16
001e91 940e 1fe4 	CALL SUBOPT_0xC
001e93 940e 2380 	CALL SUBOPT_0x83
001e95 e0e0      	LDI  R30,LOW(0)
001e96 93e0 0a1a 	STS  _bCalib,R30
001e98 940e 2389 	CALL SUBOPT_0x84
001e9a c023      	RJMP _0x20E0034
                 _0x20E0037:
001e9b 30ea      	CPI  R30,LOW(0xA)
001e9c f011      	BREQ PC+3
001e9d 940c 1ea4 	JMP _0x20E0038
001e9f e0e5      	LDI  R30,LOW(5)
001ea0 e0f0      	LDI  R31,HIGH(5)
001ea1 940e 2028 	CALL SUBOPT_0x15
001ea3 c01a      	RJMP _0x20E0034
                 _0x20E0038:
001ea4 30eb      	CPI  R30,LOW(0xB)
001ea5 f011      	BREQ PC+3
001ea6 940c 1ead 	JMP _0x20E0039
001ea8 e8e4      	LDI  R30,LOW(900)
001ea9 e0f3      	LDI  R31,HIGH(900)
001eaa 940e 2028 	CALL SUBOPT_0x15
001eac c011      	RJMP _0x20E0034
                 _0x20E0039:
001ead 30ec      	CPI  R30,LOW(0xC)
001eae f011      	BREQ PC+3
001eaf 940c 1eb6 	JMP _0x20E003A
001eb1 e0e5      	LDI  R30,LOW(5)
001eb2 e0f0      	LDI  R31,HIGH(5)
001eb3 940e 2028 	CALL SUBOPT_0x15
001eb5 c008      	RJMP _0x20E0034
                 _0x20E003A:
001eb6 30ed      	CPI  R30,LOW(0xD)
001eb7 f011      	BREQ PC+3
001eb8 940c 1ebe 	JMP _0x20E0034
001eba e8e4      	LDI  R30,LOW(900)
001ebb e0f3      	LDI  R31,HIGH(900)
001ebc 940e 2028 	CALL SUBOPT_0x15
                 _0x20E0034:
                 _0x20E0031:
                 _0x20E002C:
001ebe 9624      	ADIW R28,4
001ebf 9508      	RET
                 _UserMain:
001ec0 940e 04c9 	CALL _RunSubroutine
001ec2 940e 0728 	CALL _DisplaySubroutine
001ec4 940e 1d9e 	CALL _BuzzerSubroutine
001ec6 940e 1e08 	CALL _CalibSubroutine
001ec8 91a0 0a2c 	LDS  R26,_KeyRunCount
001eca 5faf      	SUBI R26,-LOW(1)
001ecb 93a0 0a2c 	STS  _KeyRunCount,R26
001ecd 50a1      	SUBI R26,LOW(1)
001ece 30aa      	CPI  R26,LOW(0xA)
001ecf f410      	BRSH PC+3
001ed0 940c 1f22 	JMP _0x20E003C
001ed2 91a0 0a24 	LDS  R26,_bAutoMode
001ed4 30a2      	CPI  R26,LOW(0x2)
001ed5 f011      	BREQ PC+3
001ed6 940c 1eda 	JMP _0x20E003D
001ed8 940e 11b4 	CALL _StepPressureSubroutine
                 _0x20E003D:
001eda 940e 0c0f 	CALL _KeySubroutine
001edc e0e0      	LDI  R30,LOW(0)
001edd 93e0 0a2c 	STS  _KeyRunCount,R30
001edf 940e 1228 	CALL _PressureRewardSubroutine
001ee1 940e 1265 	CALL _PressureCheckSubroutine
001ee3 91e0 0b92 	LDS  R30,_Sensor
001ee5 72e0      	ANDI R30,LOW(0x20)
001ee6 f411      	BRNE PC+3
001ee7 940c 1eed 	JMP _0x20E003E
001ee9 e0e0      	LDI  R30,LOW(0)
001eea 93e0 0a28 	STS  _bDoorSensorFail,R30
001eec c003      	RJMP _0x20E003F
                 _0x20E003E:
001eed e0e1      	LDI  R30,LOW(1)
001eee 93e0 0a28 	STS  _bDoorSensorFail,R30
                 _0x20E003F:
001ef0 91e0 0b92 	LDS  R30,_Sensor
001ef2 71e0      	ANDI R30,LOW(0x10)
001ef3 f411      	BRNE PC+3
001ef4 940c 1efa 	JMP _0x20E0040
001ef6 e0e0      	LDI  R30,LOW(0)
001ef7 93e0 0a29 	STS  _bSafeSensorFail,R30
001ef9 c003      	RJMP _0x20E0041
                 _0x20E0040:
001efa e0e1      	LDI  R30,LOW(1)
001efb 93e0 0a29 	STS  _bSafeSensorFail,R30
                 _0x20E0041:
001efd 91e0 0a2d 	LDS  R30,_bRun
001eff 30e0      	CPI  R30,0
001f00 f011      	BREQ PC+3
001f01 940c 1f07 	JMP _0x20E0042
001f03 e0e0      	LDI  R30,LOW(0)
001f04 93e0 0a18 	STS  _bReturnSensor,R30
001f06 c018      	RJMP _0x20E0043
                 _0x20E0042:
001f07 91e0 0a2d 	LDS  R30,_bRun
001f09 30e0      	CPI  R30,0
001f0a f411      	BRNE PC+3
001f0b 940c 1f1b 	JMP _0x20E0045
001f0d 91e0 0a28 	LDS  R30,_bDoorSensorFail
001f0f 30e0      	CPI  R30,0
001f10 f011      	BREQ PC+3
001f11 940c 1f1a 	JMP _0x20E0046
001f13 91e0 0a29 	LDS  R30,_bSafeSensorFail
001f15 30e0      	CPI  R30,0
001f16 f011      	BREQ PC+3
001f17 940c 1f1a 	JMP _0x20E0046
001f19 c001      	RJMP _0x20E0045
                 _0x20E0046:
001f1a c001      	RJMP _0x20E0048
                 _0x20E0045:
001f1b c003      	RJMP _0x20E0044
                 _0x20E0048:
001f1c e0e1      	LDI  R30,LOW(1)
001f1d 93e0 0a18 	STS  _bReturnSensor,R30
                 _0x20E0044:
                 _0x20E0043:
001f1f e0e1      	LDI  R30,LOW(1)
001f20 93e0 0a2b 	STS  _bVarDisplay,R30
                 _0x20E003C:
001f22 9508      	RET
                 _HalfSecMain:
001f23 931a      	ST   -Y,R17
001f24 930a      	ST   -Y,R16
001f25 91e0 0b94 	LDS  R30,_bBlink
001f27 30e0      	CPI  R30,0
001f28 f411      	BRNE PC+3
001f29 940c 1f31 	JMP _0x20E0049
001f2b 91e0 0105 	LDS  R30,261
001f2d 7fee      	ANDI R30,0xFE
001f2e 93e0 0105 	STS  261,R30
001f30 c005      	RJMP _0x20E004A
                 _0x20E0049:
001f31 91e0 0105 	LDS  R30,261
001f33 60e1      	ORI  R30,1
001f34 93e0 0105 	STS  261,R30
                 _0x20E004A:
001f36 91e0 0a19 	LDS  R30,_bDebug
001f38 30e0      	CPI  R30,0
001f39 f411      	BRNE PC+3
001f3a 940c 1f82 	JMP _0x20E004B
                +
001f3c e1e3     +LDI R30 , LOW ( 2 * _0x20E0000 + 191 )
001f3d e0f6     +LDI R31 , HIGH ( 2 * _0x20E0000 + 191 )
                 	__POINTW1FN _0x20E0000,191
001f3e 940e 2168 	CALL SUBOPT_0x3C
001f40 91e0 0a2e 	LDS  R30,_RunStep
001f42 940e 1fb7 	CALL SUBOPT_0x7
001f44 940e 1ff2 	CALL SUBOPT_0xE
001f46 940e 26ba 	CALL __PUTPARD1
001f48 e08c      	LDI  R24,12
001f49 940e 1b1c 	CALL _Uartprintf0
001f4b 962e      	ADIW R28,14
                +
001f4c e3e7     +LDI R30 , LOW ( 2 * _0x20E0000 + 227 )
001f4d e0f6     +LDI R31 , HIGH ( 2 * _0x20E0000 + 227 )
                 	__POINTW1FN _0x20E0000,227
001f4e 940e 2163 	CALL SUBOPT_0x3B
001f50 91e0 0b91 	LDS  R30,_ExtKey
001f52 940e 1fb7 	CALL SUBOPT_0x7
001f54 91e0 0b92 	LDS  R30,_Sensor
001f56 940e 1fb7 	CALL SUBOPT_0x7
001f58 91e0 0b93 	LDS  R30,_Emo
001f5a 940e 1fb7 	CALL SUBOPT_0x7
001f5c e180      	LDI  R24,16
001f5d 940e 1b1c 	CALL _Uartprintf0
001f5f 9662      	ADIW R28,18
                +
001f60 e7e2     +LDI R30 , LOW ( 2 * _0x20E0000 + 286 )
001f61 e0f6     +LDI R31 , HIGH ( 2 * _0x20E0000 + 286 )
                 	__POINTW1FN _0x20E0000,286
001f62 940e 216d 	CALL SUBOPT_0x3D
001f64 940e 1fb7 	CALL SUBOPT_0x7
001f66 e084      	LDI  R24,4
001f67 940e 1b1c 	CALL _Uartprintf0
001f69 9626      	ADIW R28,6
                +
001f6a e8e3     +LDI R30 , LOW ( 2 * _0x20E0000 + 303 )
001f6b e0f6     +LDI R31 , HIGH ( 2 * _0x20E0000 + 303 )
                 	__POINTW1FN _0x20E0000,303
001f6c 940e 24cc 	CALL SUBOPT_0xAE
001f6e 940e 219e 	CALL SUBOPT_0x42
001f70 940e 21a3 	CALL SUBOPT_0x43
001f72 940e 219e 	CALL SUBOPT_0x42
001f74 940e 25b7 	CALL SUBOPT_0xD0
                +
001f76 e8e3     +LDI R30 , LOW ( 2 * _0x20E0000 + 303 )
001f77 e0f6     +LDI R31 , HIGH ( 2 * _0x20E0000 + 303 )
                 	__POINTW1FN _0x20E0000,303
001f78 940e 24cc 	CALL SUBOPT_0xAE
001f7a 940e 219e 	CALL SUBOPT_0x42
001f7c 940e 21a3 	CALL SUBOPT_0x43
001f7e 940e 219e 	CALL SUBOPT_0x42
001f80 940e 25b7 	CALL SUBOPT_0xD0
                 _0x20E004B:
001f82 9109      	LD   R16,Y+
001f83 9119      	LD   R17,Y+
001f84 9508      	RET
                 
                 	.CSEG
                 
                 	.DSEG
                 _TickCount:
000a00           	.BYTE 0x2
                 _PressureTime:
000a02           	.BYTE 0x4
                 _Pressure:
000a06           	.BYTE 0x4
                 _PressureStep:
000a0a           	.BYTE 0x2
                 _PressureStepDelay:
000a0c           	.BYTE 0x2
                 _sPressureStepDelay:
000a0e           	.BYTE 0x2
                 _CalItvMin:
000a10           	.BYTE 0x4
                 _CalItvMax:
000a14           	.BYTE 0x4
                 _bReturnSensor:
000a18           	.BYTE 0x1
                 _bDebug:
000a19           	.BYTE 0x1
                 _bCalib:
000a1a           	.BYTE 0x1
                 _bLongKey:
000a1b           	.BYTE 0x1
                 _CalibStep:
000a1c           	.BYTE 0x1
                 _CalibStepDelay:
000a1d           	.BYTE 0x4
                 _TestMode:
000a21           	.BYTE 0x1
                 _bAgingMode:
000a22           	.BYTE 0x1
                 _bAgingEnd:
000a23           	.BYTE 0x1
                 _bAutoMode:
000a24           	.BYTE 0x1
                 _bCylXIn:
000a25           	.BYTE 0x1
                 _bCylYDown:
000a26           	.BYTE 0x1
                 _bPressureFail:
000a27           	.BYTE 0x1
                 _bDoorSensorFail:
000a28           	.BYTE 0x1
                 _bSafeSensorFail:
000a29           	.BYTE 0x1
                 _bMenuDisplay:
000a2a           	.BYTE 0x1
                 _bVarDisplay:
000a2b           	.BYTE 0x1
                 _KeyRunCount:
000a2c           	.BYTE 0x1
                 _bRun:
000a2d           	.BYTE 0x1
                 _RunStep:
000a2e           	.BYTE 0x1
                 _RunStepDelay:
000a2f           	.BYTE 0x4
                 _RunStepTime:
000a33           	.BYTE 0x4
                 _mRunStepTime:
000a37           	.BYTE 0x4
                 _bRunAlarm:
000a3b           	.BYTE 0x1
                 _Mode1Step:
000a3c           	.BYTE 0x1
                 _sMode1Step:
000a3d           	.BYTE 0x1
                 _HiddenStep:
000a3e           	.BYTE 0x1
                 _SetupExitTime:
000a3f           	.BYTE 0x2
                 _SetData:
000a41           	.BYTE 0x2
                 _Hidden1SetData:
000a43           	.BYTE 0x2
                 _BuzzerOnTime:
000a45           	.BYTE 0x2
                 _BuzzerOffTime:
000a47           	.BYTE 0x2
                 _BuzzerRepeatCount:
000a49           	.BYTE 0x2
                 _BuzzerOnCount:
000a4b           	.BYTE 0x2
                 _BuzzerOffCount:
000a4d           	.BYTE 0x2
                 _ReadPressure:
000a4f           	.BYTE 0x4
                 _DownPressure:
000a53           	.BYTE 0x2
                 _bEmoState:
000a55           	.BYTE 0x1
                 _bDownPressureEnd:
000a56           	.BYTE 0x1
                 _bPressureReward:
000a57           	.BYTE 0x1
                 _QueueData:
000a58           	.BYTE 0x100
                 _QueueFirst:
000b58           	.BYTE 0x2
                 _QueueLast:
000b5a           	.BYTE 0x2
                 _CommCommandBuffer:
000b5c           	.BYTE 0x32
                 _CommCommandSize:
000b8e           	.BYTE 0x2
                 _Key:
000b90           	.BYTE 0x1
                 _ExtKey:
000b91           	.BYTE 0x1
                 _Sensor:
000b92           	.BYTE 0x1
                 _Emo:
000b93           	.BYTE 0x1
                 _bBlink:
000b94           	.BYTE 0x1
                 _TactTimeCheckIn_S0000002:
000b95           	.BYTE 0x2
                 _TactTimeCheckOut_S0000002:
000b97           	.BYTE 0x2
                 _TactTimeCheckDown_S0000002:
000b99           	.BYTE 0x2
                 _TactTimeCheckUp_S0000002:
000b9b           	.BYTE 0x2
                 _KeyDownCount_S0000004:
000b9d           	.BYTE 0x1
                 _PrevDownKey_S0000004:
000b9e           	.BYTE 0x1
                 __seed_G102:
000b9f           	.BYTE 0x4
                 _p_S1030024:
000ba3           	.BYTE 0x2
                 _bMainStart:
000ba5           	.BYTE 0x1
                 _bHalfMainStart:
000ba6           	.BYTE 0x1
                 _IntCount:
000ba7           	.BYTE 0x2
                 _NewKey:
000ba9           	.BYTE 0x1
                 _NewExtKey:
000baa           	.BYTE 0x1
                 _NewSensor:
000bab           	.BYTE 0x1
                 _NewEmo:
000bac           	.BYTE 0x1
                 _OldKey:
000bad           	.BYTE 0x1
                 _OldExtKey:
000bae           	.BYTE 0x1
                 _OldSensor:
000baf           	.BYTE 0x1
                 _OldEmo:
000bb0           	.BYTE 0x1
                 
                 	.CSEG
                 ;OPTIMIZER ADDED SUBROUTINE, CALLED 2 TIMES, CODE SIZE REDUCTION:1 WORDS
                 SUBOPT_0x0:
001f85 91a0 0b58 	LDS  R26,_QueueFirst
001f87 91b0 0b59 	LDS  R27,_QueueFirst+1
001f89 170a      	CP   R16,R26
001f8a 071b      	CPC  R17,R27
001f8b 9508      	RET
                 
                 ;OPTIMIZER ADDED SUBROUTINE, CALLED 8 TIMES, CODE SIZE REDUCTION:25 WORDS
                 SUBOPT_0x1:
001f8c 91ed      	LD   R30,X+
001f8d 91fd      	LD   R31,X+
001f8e 9631      	ADIW R30,1
001f8f 93fe      	ST   -X,R31
001f90 93ee      	ST   -X,R30
001f91 9731      	SBIW R30,1
001f92 9508      	RET
                 
                 ;OPTIMIZER ADDED SUBROUTINE, CALLED 2 TIMES, CODE SIZE REDUCTION:1 WORDS
                 SUBOPT_0x2:
001f93 e0e0      	LDI  R30,LOW(0)
001f94 e0f0      	LDI  R31,HIGH(0)
001f95 93e0 0b8e 	STS  _CommCommandSize,R30
001f97 93f0 0b8f 	STS  _CommCommandSize+1,R31
001f99 9508      	RET
                 
                 ;OPTIMIZER ADDED SUBROUTINE, CALLED 2 TIMES, CODE SIZE REDUCTION:3 WORDS
                 SUBOPT_0x3:
001f9a 91e0 0b8e 	LDS  R30,_CommCommandSize
001f9c 91f0 0b8f 	LDS  R31,_CommCommandSize+1
001f9e 9731      	SBIW R30,1
001f9f 5ae4      	SUBI R30,LOW(-_CommCommandBuffer)
001fa0 4ff4      	SBCI R31,HIGH(-_CommCommandBuffer)
001fa1 81e0      	LD   R30,Z
001fa2 9508      	RET
                 
                 ;OPTIMIZER ADDED SUBROUTINE, CALLED 3 TIMES, CODE SIZE REDUCTION:1 WORDS
                 SUBOPT_0x4:
001fa3 e5ec      	LDI  R30,LOW(_CommCommandBuffer)
001fa4 e0fb      	LDI  R31,HIGH(_CommCommandBuffer)
001fa5 93fa      	ST   -Y,R31
001fa6 93ea      	ST   -Y,R30
001fa7 9508      	RET
                 
                 ;OPTIMIZER ADDED SUBROUTINE, CALLED 2 TIMES, CODE SIZE REDUCTION:2 WORDS
                 SUBOPT_0x5:
001fa8 93fa      	ST   -Y,R31
001fa9 93ea      	ST   -Y,R30
001faa e0e4      	LDI  R30,LOW(4)
001fab 93ea      	ST   -Y,R30
001fac 940e 178c 	CALL _strncmpf
001fae 30e0      	CPI  R30,0
001faf 9508      	RET
                 
                 ;OPTIMIZER ADDED SUBROUTINE, CALLED 18 TIMES, CODE SIZE REDUCTION:65 WORDS
                 SUBOPT_0x6:
001fb0 93fa      	ST   -Y,R31
001fb1 93ea      	ST   -Y,R30
001fb2 e080      	LDI  R24,0
001fb3 940e 1b1c 	CALL _Uartprintf0
001fb5 9622      	ADIW R28,2
001fb6 9508      	RET
                 
                 ;OPTIMIZER ADDED SUBROUTINE, CALLED 14 TIMES, CODE SIZE REDUCTION:36 WORDS
                 SUBOPT_0x7:
001fb7 27ff      	CLR  R31
001fb8 2766      	CLR  R22
001fb9 2777      	CLR  R23
001fba 940e 26ba 	CALL __PUTPARD1
001fbc 9508      	RET
                 
                 ;OPTIMIZER ADDED SUBROUTINE, CALLED 2 TIMES, CODE SIZE REDUCTION:5 WORDS
                 SUBOPT_0x8:
001fbd 93e0 0a45 	STS  _BuzzerOnTime,R30
001fbf 93f0 0a46 	STS  _BuzzerOnTime+1,R31
001fc1 e0ea      	LDI  R30,LOW(10)
001fc2 e0f0      	LDI  R31,HIGH(10)
001fc3 93e0 0a47 	STS  _BuzzerOffTime,R30
001fc5 93f0 0a48 	STS  _BuzzerOffTime+1,R31
001fc7 9508      	RET
                 
                 ;OPTIMIZER ADDED SUBROUTINE, CALLED 2 TIMES, CODE SIZE REDUCTION:11 WORDS
                 SUBOPT_0x9:
001fc8 91e0 0a45 	LDS  R30,_BuzzerOnTime
001fca 91f0 0a46 	LDS  R31,_BuzzerOnTime+1
001fcc 93e0 0a4b 	STS  _BuzzerOnCount,R30
001fce 93f0 0a4c 	STS  _BuzzerOnCount+1,R31
001fd0 91e0 0a47 	LDS  R30,_BuzzerOffTime
001fd2 91f0 0a48 	LDS  R31,_BuzzerOffTime+1
001fd4 93e0 0a4d 	STS  _BuzzerOffCount,R30
001fd6 93f0 0a4e 	STS  _BuzzerOffCount+1,R31
001fd8 9508      	RET
                 
                 ;OPTIMIZER ADDED SUBROUTINE, CALLED 24 TIMES, CODE SIZE REDUCTION:43 WORDS
                 SUBOPT_0xA:
001fd9 e0e0      	LDI  R30,LOW(0)
001fda e0f0      	LDI  R31,HIGH(0)
001fdb 93fa      	ST   -Y,R31
001fdc 93ea      	ST   -Y,R30
001fdd 9508      	RET
                 
                 ;OPTIMIZER ADDED SUBROUTINE, CALLED 6 TIMES, CODE SIZE REDUCTION:17 WORDS
                 SUBOPT_0xB:
001fde ece8      	LDI  R30,LOW(200)
001fdf e0f0      	LDI  R31,HIGH(200)
001fe0 93fa      	ST   -Y,R31
001fe1 93ea      	ST   -Y,R30
001fe2 940c 1c1e 	JMP  _SetItv
                 
                 ;OPTIMIZER ADDED SUBROUTINE, CALLED 9 TIMES, CODE SIZE REDUCTION:13 WORDS
                 SUBOPT_0xC:
                +
001fe4 e0e0     +LDI R30 , LOW ( 0x0 )
001fe5 e0f0     +LDI R31 , HIGH ( 0x0 )
001fe6 e060     +LDI R22 , BYTE3 ( 0x0 )
001fe7 e070     +LDI R23 , BYTE4 ( 0x0 )
                 	__GETD1N 0x0
001fe8 9508      	RET
                 
                 ;OPTIMIZER ADDED SUBROUTINE, CALLED 12 TIMES, CODE SIZE REDUCTION:63 WORDS
                 SUBOPT_0xD:
001fe9 93e0 0a2f 	STS  _RunStepDelay,R30
001feb 93f0 0a30 	STS  _RunStepDelay+1,R31
001fed 9360 0a31 	STS  _RunStepDelay+2,R22
001fef 9370 0a32 	STS  _RunStepDelay+3,R23
001ff1 9508      	RET
                 
                 ;OPTIMIZER ADDED SUBROUTINE, CALLED 3 TIMES, CODE SIZE REDUCTION:9 WORDS
                 SUBOPT_0xE:
001ff2 91e0 0a2f 	LDS  R30,_RunStepDelay
001ff4 91f0 0a30 	LDS  R31,_RunStepDelay+1
001ff6 9160 0a31 	LDS  R22,_RunStepDelay+2
001ff8 9170 0a32 	LDS  R23,_RunStepDelay+3
001ffa 9508      	RET
                 
                 ;OPTIMIZER ADDED SUBROUTINE, CALLED 2 TIMES, CODE SIZE REDUCTION:2 WORDS
                 SUBOPT_0xF:
001ffb 940e 26b0 	CALL __GETD1P_INC
001ffd 9731      	SBIW R30,1
001ffe 4060      	SBCI R22,0
001fff 4070      	SBCI R23,0
002000 940e 26b5 	CALL __PUTDP1_DEC
002002 9508      	RET
                 
                 ;OPTIMIZER ADDED SUBROUTINE, CALLED 25 TIMES, CODE SIZE REDUCTION:45 WORDS
                 SUBOPT_0x10:
                +
002003 e0ea     +LDI R30 , LOW ( 0xA )
002004 e0f0     +LDI R31 , HIGH ( 0xA )
002005 e060     +LDI R22 , BYTE3 ( 0xA )
002006 e070     +LDI R23 , BYTE4 ( 0xA )
                 	__GETD1N 0xA
002007 9508      	RET
                 
                 ;OPTIMIZER ADDED SUBROUTINE, CALLED 5 TIMES, CODE SIZE REDUCTION:5 WORDS
                 SUBOPT_0x11:
002008 940e 2696 	CALL __MODD21U
00200a 940e 2873 	CALL __CPD10
00200c 9508      	RET
                 
                 ;OPTIMIZER ADDED SUBROUTINE, CALLED 2 TIMES, CODE SIZE REDUCTION:5 WORDS
                 SUBOPT_0x12:
00200d 940e 1fe4 	CALL SUBOPT_0xC
00200f 93e0 0a33 	STS  _RunStepTime,R30
002011 93f0 0a34 	STS  _RunStepTime+1,R31
002013 9360 0a35 	STS  _RunStepTime+2,R22
002015 9370 0a36 	STS  _RunStepTime+3,R23
002017 9508      	RET
                 
                 ;OPTIMIZER ADDED SUBROUTINE, CALLED 4 TIMES, CODE SIZE REDUCTION:9 WORDS
                 SUBOPT_0x13:
002018 93e0 0a2e 	STS  _RunStep,R30
00201a 940e 2003 	CALL SUBOPT_0x10
00201c cfcc      	RJMP SUBOPT_0xD
                 
                 ;OPTIMIZER ADDED SUBROUTINE, CALLED 2 TIMES, CODE SIZE REDUCTION:5 WORDS
                 SUBOPT_0x14:
00201d 91e0 0108 	LDS  R30,264
00201f 60e1      	ORI  R30,1
002020 93e0 0108 	STS  264,R30
002022 91e0 0108 	LDS  R30,264
002024 7fed      	ANDI R30,0xFD
002025 93e0 0108 	STS  264,R30
002027 9508      	RET
                 
                 ;OPTIMIZER ADDED SUBROUTINE, CALLED 17 TIMES, CODE SIZE REDUCTION:29 WORDS
                 SUBOPT_0x15:
002028 93fa      	ST   -Y,R31
002029 93ea      	ST   -Y,R30
00202a 940c 1c1e 	JMP  _SetItv
                 
                 ;OPTIMIZER ADDED SUBROUTINE, CALLED 7 TIMES, CODE SIZE REDUCTION:21 WORDS
                 SUBOPT_0x16:
00202c 91e0 0a06 	LDS  R30,_Pressure
00202e 91f0 0a07 	LDS  R31,_Pressure+1
002030 cff7      	RJMP SUBOPT_0x15
                 
                 ;OPTIMIZER ADDED SUBROUTINE, CALLED 2 TIMES, CODE SIZE REDUCTION:5 WORDS
                 SUBOPT_0x17:
002031 91e0 0108 	LDS  R30,264
002033 7feb      	ANDI R30,0xFB
002034 93e0 0108 	STS  264,R30
002036 91e0 0108 	LDS  R30,264
002038 60e8      	ORI  R30,8
002039 93e0 0108 	STS  264,R30
00203b 9508      	RET
                 
                 ;OPTIMIZER ADDED SUBROUTINE, CALLED 3 TIMES, CODE SIZE REDUCTION:5 WORDS
                 SUBOPT_0x18:
                +
00203c e6e4     +LDI R30 , LOW ( 0x64 )
00203d e0f0     +LDI R31 , HIGH ( 0x64 )
00203e e060     +LDI R22 , BYTE3 ( 0x64 )
00203f e070     +LDI R23 , BYTE4 ( 0x64 )
                 	__GETD1N 0x64
002040 cfa8      	RJMP SUBOPT_0xD
                 
                 ;OPTIMIZER ADDED SUBROUTINE, CALLED 5 TIMES, CODE SIZE REDUCTION:29 WORDS
                 SUBOPT_0x19:
002041 91a0 0a02 	LDS  R26,_PressureTime
002043 91b0 0a03 	LDS  R27,_PressureTime+1
002045 9180 0a04 	LDS  R24,_PressureTime+2
002047 9190 0a05 	LDS  R25,_PressureTime+3
002049 cfb9      	RJMP SUBOPT_0x10
                 
                 ;OPTIMIZER ADDED SUBROUTINE, CALLED 4 TIMES, CODE SIZE REDUCTION:21 WORDS
                 SUBOPT_0x1A:
00204a 91e0 0108 	LDS  R30,264
00204c 60e4      	ORI  R30,4
00204d 93e0 0108 	STS  264,R30
00204f 91e0 0108 	LDS  R30,264
002051 7fe7      	ANDI R30,0XF7
002052 93e0 0108 	STS  264,R30
002054 9508      	RET
                 
                 ;OPTIMIZER ADDED SUBROUTINE, CALLED 2 TIMES, CODE SIZE REDUCTION:1 WORDS
                 SUBOPT_0x1B:
002055 e0e1      	LDI  R30,LOW(1)
002056 93ea      	ST   -Y,R30
002057 e0e2      	LDI  R30,LOW(2)
002058 93ea      	ST   -Y,R30
002059 940c 04ad 	JMP  _SetBuzzer
                 
                 ;OPTIMIZER ADDED SUBROUTINE, CALLED 26 TIMES, CODE SIZE REDUCTION:47 WORDS
                 SUBOPT_0x1C:
00205b e0e0      	LDI  R30,LOW(0)
00205c 93ea      	ST   -Y,R30
00205d 93ea      	ST   -Y,R30
00205e 9508      	RET
                 
                 ;OPTIMIZER ADDED SUBROUTINE, CALLED 2 TIMES, CODE SIZE REDUCTION:8 WORDS
                 SUBOPT_0x1D:
00205f 91e0 0108 	LDS  R30,264
002061 60e2      	ORI  R30,2
002062 93e0 0108 	STS  264,R30
002064 91e0 0108 	LDS  R30,264
002066 7fee      	ANDI R30,0xFE
002067 93e0 0108 	STS  264,R30
002069 e0e1      	LDI  R30,LOW(1)
00206a 93e0 0a2b 	STS  _bVarDisplay,R30
00206c 9508      	RET
                 
                 ;OPTIMIZER ADDED SUBROUTINE, CALLED 2 TIMES, CODE SIZE REDUCTION:1 WORDS
                 SUBOPT_0x1E:
00206d e0e0      	LDI  R30,LOW(0)
00206e e0f0      	LDI  R31,HIGH(0)
00206f 93e0 0a53 	STS  _DownPressure,R30
002071 93f0 0a54 	STS  _DownPressure+1,R31
002073 9508      	RET
                 
                 ;OPTIMIZER ADDED SUBROUTINE, CALLED 3 TIMES, CODE SIZE REDUCTION:5 WORDS
                 SUBOPT_0x1F:
002074 e0e1      	LDI  R30,LOW(1)
002075 93ea      	ST   -Y,R30
002076 93ea      	ST   -Y,R30
002077 940c 04ad 	JMP  _SetBuzzer
                 
                 ;OPTIMIZER ADDED SUBROUTINE, CALLED 25 TIMES, CODE SIZE REDUCTION:45 WORDS
                 SUBOPT_0x20:
002079 e0e0      	LDI  R30,LOW(0)
00207a 93ea      	ST   -Y,R30
00207b e0e1      	LDI  R30,LOW(1)
00207c 93ea      	ST   -Y,R30
00207d 9508      	RET
                 
                 ;OPTIMIZER ADDED SUBROUTINE, CALLED 5 TIMES, CODE SIZE REDUCTION:5 WORDS
                 SUBOPT_0x21:
00207e e0ea      	LDI  R30,LOW(10)
00207f e0f0      	LDI  R31,HIGH(10)
002080 93fa      	ST   -Y,R31
002081 93ea      	ST   -Y,R30
002082 9508      	RET
                 
                 ;OPTIMIZER ADDED SUBROUTINE, CALLED 6 TIMES, CODE SIZE REDUCTION:7 WORDS
                 SUBOPT_0x22:
002083 940e 1a6b 	CALL _GetEeprom2
002085 2766      	CLR  R22
002086 2777      	CLR  R23
002087 9508      	RET
                 
                 ;OPTIMIZER ADDED SUBROUTINE, CALLED 4 TIMES, CODE SIZE REDUCTION:15 WORDS
                 SUBOPT_0x23:
002088 93e0 0a10 	STS  _CalItvMin,R30
00208a 93f0 0a11 	STS  _CalItvMin+1,R31
00208c 9360 0a12 	STS  _CalItvMin+2,R22
00208e 9370 0a13 	STS  _CalItvMin+3,R23
002090 9508      	RET
                 
                 ;OPTIMIZER ADDED SUBROUTINE, CALLED 5 TIMES, CODE SIZE REDUCTION:5 WORDS
                 SUBOPT_0x24:
002091 e0ec      	LDI  R30,LOW(12)
002092 e0f0      	LDI  R31,HIGH(12)
002093 93fa      	ST   -Y,R31
002094 93ea      	ST   -Y,R30
002095 9508      	RET
                 
                 ;OPTIMIZER ADDED SUBROUTINE, CALLED 2 TIMES, CODE SIZE REDUCTION:5 WORDS
                 SUBOPT_0x25:
002096 940e 1a82 	CALL _GetEeprom4
002098 93e0 0a14 	STS  _CalItvMax,R30
00209a 93f0 0a15 	STS  _CalItvMax+1,R31
00209c 9360 0a16 	STS  _CalItvMax+2,R22
00209e 9370 0a17 	STS  _CalItvMax+3,R23
0020a0 9508      	RET
                 
                 ;OPTIMIZER ADDED SUBROUTINE, CALLED 5 TIMES, CODE SIZE REDUCTION:13 WORDS
                 SUBOPT_0x26:
0020a1 e0e1      	LDI  R30,LOW(1)
0020a2 93e0 0a2a 	STS  _bMenuDisplay,R30
0020a4 93e0 0a2b 	STS  _bVarDisplay,R30
0020a6 9508      	RET
                 
                 ;OPTIMIZER ADDED SUBROUTINE, CALLED 3 TIMES, CODE SIZE REDUCTION:13 WORDS
                 SUBOPT_0x27:
0020a7 91e0 0108 	LDS  R30,264
0020a9 60e2      	ORI  R30,2
0020aa 93e0 0108 	STS  264,R30
0020ac 91e0 0108 	LDS  R30,264
0020ae 7fee      	ANDI R30,0xFE
0020af 93e0 0108 	STS  264,R30
0020b1 9508      	RET
                 
                 ;OPTIMIZER ADDED SUBROUTINE, CALLED 4 TIMES, CODE SIZE REDUCTION:57 WORDS
                 SUBOPT_0x28:
0020b2 2766      	CLR  R22
0020b3 2777      	CLR  R23
0020b4 93e0 0a37 	STS  _mRunStepTime,R30
0020b6 93f0 0a38 	STS  _mRunStepTime+1,R31
0020b8 9360 0a39 	STS  _mRunStepTime+2,R22
0020ba 9370 0a3a 	STS  _mRunStepTime+3,R23
0020bc 91a0 0a37 	LDS  R26,_mRunStepTime
0020be 91b0 0a38 	LDS  R27,_mRunStepTime+1
0020c0 9180 0a39 	LDS  R24,_mRunStepTime+2
0020c2 9190 0a3a 	LDS  R25,_mRunStepTime+3
0020c4 940e 2003 	CALL SUBOPT_0x10
0020c6 cf41      	RJMP SUBOPT_0x11
                 
                 ;OPTIMIZER ADDED SUBROUTINE, CALLED 4 TIMES, CODE SIZE REDUCTION:3 WORDS
                 SUBOPT_0x29:
0020c7 e0ed      	LDI  R30,LOW(13)
0020c8 93ea      	ST   -Y,R30
0020c9 e0e0      	LDI  R30,LOW(0)
0020ca 93ea      	ST   -Y,R30
0020cb 9508      	RET
                 
                 ;OPTIMIZER ADDED SUBROUTINE, CALLED 66 TIMES, CODE SIZE REDUCTION:257 WORDS
                 SUBOPT_0x2A:
0020cc 93fa      	ST   -Y,R31
0020cd 93ea      	ST   -Y,R30
0020ce e080      	LDI  R24,0
0020cf 940e 1c04 	CALL _Lcdprintf
0020d1 9624      	ADIW R28,4
0020d2 9508      	RET
                 
                 ;OPTIMIZER ADDED SUBROUTINE, CALLED 15 TIMES, CODE SIZE REDUCTION:25 WORDS
                 SUBOPT_0x2B:
0020d3 e0e0      	LDI  R30,LOW(0)
0020d4 93ea      	ST   -Y,R30
0020d5 e0e2      	LDI  R30,LOW(2)
0020d6 93ea      	ST   -Y,R30
0020d7 9508      	RET
                 
                 ;OPTIMIZER ADDED SUBROUTINE, CALLED 12 TIMES, CODE SIZE REDUCTION:19 WORDS
                 SUBOPT_0x2C:
0020d8 940e 2662 	CALL __DIVD21U
0020da 940e 26ba 	CALL __PUTPARD1
0020dc 9508      	RET
                 
                 ;OPTIMIZER ADDED SUBROUTINE, CALLED 12 TIMES, CODE SIZE REDUCTION:19 WORDS
                 SUBOPT_0x2D:
0020dd 940e 2696 	CALL __MODD21U
0020df 940e 26ba 	CALL __PUTPARD1
0020e1 9508      	RET
                 
                 ;OPTIMIZER ADDED SUBROUTINE, CALLED 4 TIMES, CODE SIZE REDUCTION:27 WORDS
                 SUBOPT_0x2E:
0020e2 91a0 0a06 	LDS  R26,_Pressure
0020e4 91b0 0a07 	LDS  R27,_Pressure+1
0020e6 9180 0a08 	LDS  R24,_Pressure+2
0020e8 9190 0a09 	LDS  R25,_Pressure+3
                +
0020ea e6e4     +LDI R30 , LOW ( 0x64 )
0020eb e0f0     +LDI R31 , HIGH ( 0x64 )
0020ec e060     +LDI R22 , BYTE3 ( 0x64 )
0020ed e070     +LDI R23 , BYTE4 ( 0x64 )
                 	__GETD1N 0x64
0020ee 9508      	RET
                 
                 ;OPTIMIZER ADDED SUBROUTINE, CALLED 3 TIMES, CODE SIZE REDUCTION:1 WORDS
                 SUBOPT_0x2F:
0020ef e0ec      	LDI  R30,LOW(12)
0020f0 93ea      	ST   -Y,R30
0020f1 940c 1b94 	JMP  _LcdCommandWrite
                 
                 ;OPTIMIZER ADDED SUBROUTINE, CALLED 5 TIMES, CODE SIZE REDUCTION:5 WORDS
                 SUBOPT_0x30:
                +
0020f3 eae6     +LDI R30 , LOW ( 2 * _0x0 + 422 )
0020f4 e0f2     +LDI R31 , HIGH ( 2 * _0x0 + 422 )
                 	__POINTW1FN _0x0,422
0020f5 cfd6      	RJMP SUBOPT_0x2A
                 
                 ;OPTIMIZER ADDED SUBROUTINE, CALLED 2 TIMES, CODE SIZE REDUCTION:3 WORDS
                 SUBOPT_0x31:
                +
0020f6 ebeb     +LDI R30 , LOW ( 2 * _0x0 + 443 )
0020f7 e0f2     +LDI R31 , HIGH ( 2 * _0x0 + 443 )
                 	__POINTW1FN _0x0,443
0020f8 93fa      	ST   -Y,R31
0020f9 93ea      	ST   -Y,R30
0020fa 940e 1fe4 	CALL SUBOPT_0xC
0020fc 940e 26ba 	CALL __PUTPARD1
0020fe 9508      	RET
                 
                 ;OPTIMIZER ADDED SUBROUTINE, CALLED 4 TIMES, CODE SIZE REDUCTION:21 WORDS
                 SUBOPT_0x32:
0020ff 940e 26ba 	CALL __PUTPARD1
002101 e088      	LDI  R24,8
002102 940e 1c04 	CALL _Lcdprintf
002104 962c      	ADIW R28,12
002105 e0ef      	LDI  R30,LOW(15)
002106 93ea      	ST   -Y,R30
002107 940c 1b94 	JMP  _LcdCommandWrite
                 
                 ;OPTIMIZER ADDED SUBROUTINE, CALLED 5 TIMES, CODE SIZE REDUCTION:5 WORDS
                 SUBOPT_0x33:
                +
002109 ecec     +LDI R30 , LOW ( 2 * _0x0 + 460 )
00210a e0f2     +LDI R31 , HIGH ( 2 * _0x0 + 460 )
                 	__POINTW1FN _0x0,460
00210b cfc0      	RJMP SUBOPT_0x2A
                 
                 ;OPTIMIZER ADDED SUBROUTINE, CALLED 5 TIMES, CODE SIZE REDUCTION:21 WORDS
                 SUBOPT_0x34:
00210c e0ec      	LDI  R30,LOW(12)
00210d 93ea      	ST   -Y,R30
00210e e0e1      	LDI  R30,LOW(1)
00210f 93ea      	ST   -Y,R30
                +
002110 eeed     +LDI R30 , LOW ( 2 * _0x0 + 493 )
002111 e0f2     +LDI R31 , HIGH ( 2 * _0x0 + 493 )
                 	__POINTW1FN _0x0,493
002112 93fa      	ST   -Y,R31
002113 93ea      	ST   -Y,R30
002114 9508      	RET
                 
                 ;OPTIMIZER ADDED SUBROUTINE, CALLED 2 TIMES, CODE SIZE REDUCTION:35 WORDS
                 SUBOPT_0x35:
                +
002115 e0e5     +LDI R30 , LOW ( 0x5 )
002116 e0f0     +LDI R31 , HIGH ( 0x5 )
002117 e060     +LDI R22 , BYTE3 ( 0x5 )
002118 e070     +LDI R23 , BYTE4 ( 0x5 )
                 	__GETD1N 0x5
002119 940e 26ba 	CALL __PUTPARD1
                +
00211b e3e2     +LDI R30 , LOW ( 0x32 )
00211c e0f0     +LDI R31 , HIGH ( 0x32 )
00211d e060     +LDI R22 , BYTE3 ( 0x32 )
00211e e070     +LDI R23 , BYTE4 ( 0x32 )
                 	__GETD1N 0x32
00211f 940e 26ba 	CALL __PUTPARD1
002121 e088      	LDI  R24,8
002122 940e 1c04 	CALL _Lcdprintf
002124 962c      	ADIW R28,12
002125 e0ec      	LDI  R30,LOW(12)
002126 93ea      	ST   -Y,R30
002127 e0e2      	LDI  R30,LOW(2)
002128 93ea      	ST   -Y,R30
                +
002129 efe5     +LDI R30 , LOW ( 2 * _0x0 + 501 )
00212a e0f2     +LDI R31 , HIGH ( 2 * _0x0 + 501 )
                 	__POINTW1FN _0x0,501
00212b 93fa      	ST   -Y,R31
00212c 93ea      	ST   -Y,R30
                +
00212d e0eb     +LDI R30 , LOW ( 0xB )
00212e e0f0     +LDI R31 , HIGH ( 0xB )
00212f e060     +LDI R22 , BYTE3 ( 0xB )
002130 e070     +LDI R23 , BYTE4 ( 0xB )
                 	__GETD1N 0xB
002131 940e 26ba 	CALL __PUTPARD1
                +
002133 e0e7     +LDI R30 , LOW ( 0x7 )
002134 e0f0     +LDI R31 , HIGH ( 0x7 )
002135 e060     +LDI R22 , BYTE3 ( 0x7 )
002136 e070     +LDI R23 , BYTE4 ( 0x7 )
                 	__GETD1N 0x7
002137 940e 26ba 	CALL __PUTPARD1
002139 e088      	LDI  R24,8
00213a 940e 1c04 	CALL _Lcdprintf
00213c 962c      	ADIW R28,12
00213d 9508      	RET
                 
                 ;OPTIMIZER ADDED SUBROUTINE, CALLED 9 TIMES, CODE SIZE REDUCTION:29 WORDS
                 SUBOPT_0x36:
00213e 940e 26ba 	CALL __PUTPARD1
002140 e088      	LDI  R24,8
002141 940e 1c04 	CALL _Lcdprintf
002143 962c      	ADIW R28,12
002144 9508      	RET
                 
                 ;OPTIMIZER ADDED SUBROUTINE, CALLED 2 TIMES, CODE SIZE REDUCTION:3 WORDS
                 SUBOPT_0x37:
002145 e0ec      	LDI  R30,LOW(12)
002146 93ea      	ST   -Y,R30
002147 e0e2      	LDI  R30,LOW(2)
002148 93ea      	ST   -Y,R30
                +
002149 efe5     +LDI R30 , LOW ( 2 * _0x0 + 501 )
00214a e0f2     +LDI R31 , HIGH ( 2 * _0x0 + 501 )
                 	__POINTW1FN _0x0,501
00214b 93fa      	ST   -Y,R31
00214c 93ea      	ST   -Y,R30
00214d 9508      	RET
                 
                 ;OPTIMIZER ADDED SUBROUTINE, CALLED 10 TIMES, CODE SIZE REDUCTION:15 WORDS
                 SUBOPT_0x38:
00214e e088      	LDI  R24,8
00214f 940e 1c04 	CALL _Lcdprintf
002151 962c      	ADIW R28,12
002152 9508      	RET
                 
                 ;OPTIMIZER ADDED SUBROUTINE, CALLED 2 TIMES, CODE SIZE REDUCTION:1 WORDS
                 SUBOPT_0x39:
002153 940e 26ba 	CALL __PUTPARD1
002155 940e 2003 	CALL SUBOPT_0x10
002157 cfa7      	RJMP SUBOPT_0x32
                 
                 ;OPTIMIZER ADDED SUBROUTINE, CALLED 2 TIMES, CODE SIZE REDUCTION:5 WORDS
                 SUBOPT_0x3A:
002158 940e 1c3f 	CALL _GetItv
00215a 93e0 0a4f 	STS  _ReadPressure,R30
00215c 93f0 0a50 	STS  _ReadPressure+1,R31
00215e 9360 0a51 	STS  _ReadPressure+2,R22
002160 9370 0a52 	STS  _ReadPressure+3,R23
002162 9508      	RET
                 
                 ;OPTIMIZER ADDED SUBROUTINE, CALLED 2 TIMES, CODE SIZE REDUCTION:1 WORDS
                 SUBOPT_0x3B:
002163 93fa      	ST   -Y,R31
002164 93ea      	ST   -Y,R30
002165 91e0 0b90 	LDS  R30,_Key
002167 ce4f      	RJMP SUBOPT_0x7
                 
                 ;OPTIMIZER ADDED SUBROUTINE, CALLED 2 TIMES, CODE SIZE REDUCTION:1 WORDS
                 SUBOPT_0x3C:
002168 93fa      	ST   -Y,R31
002169 93ea      	ST   -Y,R30
00216a 91e0 0a2d 	LDS  R30,_bRun
00216c ce4a      	RJMP SUBOPT_0x7
                 
                 ;OPTIMIZER ADDED SUBROUTINE, CALLED 3 TIMES, CODE SIZE REDUCTION:1 WORDS
                 SUBOPT_0x3D:
00216d 93fa      	ST   -Y,R31
00216e 93ea      	ST   -Y,R30
00216f 91e0 0a3c 	LDS  R30,_Mode1Step
002171 9508      	RET
                 
                 ;OPTIMIZER ADDED SUBROUTINE, CALLED 4 TIMES, CODE SIZE REDUCTION:3 WORDS
                 SUBOPT_0x3E:
002172 e084      	LDI  R24,4
002173 940e 1c04 	CALL _Lcdprintf
002175 9628      	ADIW R28,8
002176 9508      	RET
                 
                 ;OPTIMIZER ADDED SUBROUTINE, CALLED 5 TIMES, CODE SIZE REDUCTION:77 WORDS
                 SUBOPT_0x3F:
002177 e0e0      	LDI  R30,LOW(0)
002178 93ea      	ST   -Y,R30
002179 e0e3      	LDI  R30,LOW(3)
00217a 93ea      	ST   -Y,R30
                +
00217b eae8     +LDI R30 , LOW ( 2 * _0x0 + 680 )
00217c e0f3     +LDI R31 , HIGH ( 2 * _0x0 + 680 )
                 	__POINTW1FN _0x0,680
00217d 93fa      	ST   -Y,R31
00217e 93ea      	ST   -Y,R30
00217f 91a0 0a4f 	LDS  R26,_ReadPressure
002181 91b0 0a50 	LDS  R27,_ReadPressure+1
002183 9180 0a51 	LDS  R24,_ReadPressure+2
002185 9190 0a52 	LDS  R25,_ReadPressure+3
                +
002187 e6e4     +LDI R30 , LOW ( 0x64 )
002188 e0f0     +LDI R31 , HIGH ( 0x64 )
002189 e060     +LDI R22 , BYTE3 ( 0x64 )
00218a e070     +LDI R23 , BYTE4 ( 0x64 )
                 	__GETD1N 0x64
00218b cf4c      	RJMP SUBOPT_0x2C
                 
                 ;OPTIMIZER ADDED SUBROUTINE, CALLED 6 TIMES, CODE SIZE REDUCTION:57 WORDS
                 SUBOPT_0x40:
00218c 91a0 0a4f 	LDS  R26,_ReadPressure
00218e 91b0 0a50 	LDS  R27,_ReadPressure+1
002190 9180 0a51 	LDS  R24,_ReadPressure+2
002192 9190 0a52 	LDS  R25,_ReadPressure+3
                +
002194 e6e4     +LDI R30 , LOW ( 0x64 )
002195 e0f0     +LDI R31 , HIGH ( 0x64 )
002196 e060     +LDI R22 , BYTE3 ( 0x64 )
002197 e070     +LDI R23 , BYTE4 ( 0x64 )
                 	__GETD1N 0x64
002198 cf44      	RJMP SUBOPT_0x2D
                 
                 ;OPTIMIZER ADDED SUBROUTINE, CALLED 4 TIMES, CODE SIZE REDUCTION:9 WORDS
                 SUBOPT_0x41:
                +
002199 eee3     +LDI R30 , LOW ( 2 * _0x0 + 739 )
00219a e0f3     +LDI R31 , HIGH ( 2 * _0x0 + 739 )
                 	__POINTW1FN _0x0,739
00219b 93fa      	ST   -Y,R31
00219c 93ea      	ST   -Y,R30
00219d ce3b      	RJMP SUBOPT_0xA
                 
                 ;OPTIMIZER ADDED SUBROUTINE, CALLED 16 TIMES, CODE SIZE REDUCTION:27 WORDS
                 SUBOPT_0x42:
00219e 940e 1b55 	CALL _Ltc1865Read
0021a0 2766      	CLR  R22
0021a1 2777      	CLR  R23
0021a2 9508      	RET
                 
                 ;OPTIMIZER ADDED SUBROUTINE, CALLED 6 TIMES, CODE SIZE REDUCTION:7 WORDS
                 SUBOPT_0x43:
0021a3 940e 26ba 	CALL __PUTPARD1
0021a5 ce33      	RJMP SUBOPT_0xA
                 
                 ;OPTIMIZER ADDED SUBROUTINE, CALLED 3 TIMES, CODE SIZE REDUCTION:9 WORDS
                 SUBOPT_0x44:
0021a6 91e0 0a10 	LDS  R30,_CalItvMin
0021a8 91f0 0a11 	LDS  R31,_CalItvMin+1
0021aa 9160 0a12 	LDS  R22,_CalItvMin+2
0021ac 9170 0a13 	LDS  R23,_CalItvMin+3
0021ae 9508      	RET
                 
                 ;OPTIMIZER ADDED SUBROUTINE, CALLED 3 TIMES, CODE SIZE REDUCTION:1 WORDS
                 SUBOPT_0x45:
0021af 940e 26ba 	CALL __PUTPARD1
0021b1 cfc0      	RJMP SUBOPT_0x3E
                 
                 ;OPTIMIZER ADDED SUBROUTINE, CALLED 7 TIMES, CODE SIZE REDUCTION:33 WORDS
                 SUBOPT_0x46:
0021b2 91e0 0a14 	LDS  R30,_CalItvMax
0021b4 91f0 0a15 	LDS  R31,_CalItvMax+1
0021b6 9160 0a16 	LDS  R22,_CalItvMax+2
0021b8 9170 0a17 	LDS  R23,_CalItvMax+3
0021ba 9508      	RET
                 
                 ;OPTIMIZER ADDED SUBROUTINE, CALLED 2 TIMES, CODE SIZE REDUCTION:3 WORDS
                 SUBOPT_0x47:
0021bb e1e0      	LDI  R30,LOW(16)
0021bc 93ea      	ST   -Y,R30
0021bd e0e2      	LDI  R30,LOW(2)
0021be 93ea      	ST   -Y,R30
                +
0021bf efe5     +LDI R30 , LOW ( 2 * _0x0 + 501 )
0021c0 e0f2     +LDI R31 , HIGH ( 2 * _0x0 + 501 )
                 	__POINTW1FN _0x0,501
0021c1 93fa      	ST   -Y,R31
0021c2 93ea      	ST   -Y,R30
0021c3 9508      	RET
                 
                 ;OPTIMIZER ADDED SUBROUTINE, CALLED 2 TIMES, CODE SIZE REDUCTION:11 WORDS
                 SUBOPT_0x48:
0021c4 91a0 0a33 	LDS  R26,_RunStepTime
0021c6 91b0 0a34 	LDS  R27,_RunStepTime+1
0021c8 9180 0a35 	LDS  R24,_RunStepTime+2
0021ca 9190 0a36 	LDS  R25,_RunStepTime+3
0021cc 940e 2003 	CALL SUBOPT_0x10
0021ce 940e 2662 	CALL __DIVD21U
0021d0 01df      	MOVW R26,R30
0021d1 01cb      	MOVW R24,R22
0021d2 ce30      	RJMP SUBOPT_0x10
                 
                 ;OPTIMIZER ADDED SUBROUTINE, CALLED 2 TIMES, CODE SIZE REDUCTION:11 WORDS
                 SUBOPT_0x49:
0021d3 91a0 0a37 	LDS  R26,_mRunStepTime
0021d5 91b0 0a38 	LDS  R27,_mRunStepTime+1
0021d7 9180 0a39 	LDS  R24,_mRunStepTime+2
0021d9 9190 0a3a 	LDS  R25,_mRunStepTime+3
0021db 940e 2003 	CALL SUBOPT_0x10
0021dd 940e 2662 	CALL __DIVD21U
0021df 01df      	MOVW R26,R30
0021e0 01cb      	MOVW R24,R22
0021e1 ce21      	RJMP SUBOPT_0x10
                 
                 ;OPTIMIZER ADDED SUBROUTINE, CALLED 20 TIMES, CODE SIZE REDUCTION:35 WORDS
                 SUBOPT_0x4A:
0021e2 e0e0      	LDI  R30,LOW(0)
0021e3 93ea      	ST   -Y,R30
0021e4 e0e3      	LDI  R30,LOW(3)
0021e5 93ea      	ST   -Y,R30
0021e6 9508      	RET
                 
                 ;OPTIMIZER ADDED SUBROUTINE, CALLED 4 TIMES, CODE SIZE REDUCTION:3 WORDS
                 SUBOPT_0x4B:
                +
0021e7 ede6     +LDI R30 , LOW ( 2 * _0x0 + 726 )
0021e8 e0f3     +LDI R31 , HIGH ( 2 * _0x0 + 726 )
                 	__POINTW1FN _0x0,726
0021e9 cee2      	RJMP SUBOPT_0x2A
                 
                 ;OPTIMIZER ADDED SUBROUTINE, CALLED 2 TIMES, CODE SIZE REDUCTION:1 WORDS
                 SUBOPT_0x4C:
0021ea 91a0 0a41 	LDS  R26,_SetData
0021ec 91b0 0a42 	LDS  R27,_SetData+1
0021ee e6e4      	LDI  R30,LOW(100)
0021ef e0f0      	LDI  R31,HIGH(100)
0021f0 9508      	RET
                 
                 ;OPTIMIZER ADDED SUBROUTINE, CALLED 3 TIMES, CODE SIZE REDUCTION:5 WORDS
                 SUBOPT_0x4D:
0021f1 940e 264f 	CALL __DIVW21U
0021f3 2766      	CLR  R22
0021f4 2777      	CLR  R23
0021f5 940e 26ba 	CALL __PUTPARD1
0021f7 9508      	RET
                 
                 ;OPTIMIZER ADDED SUBROUTINE, CALLED 3 TIMES, CODE SIZE REDUCTION:5 WORDS
                 SUBOPT_0x4E:
0021f8 940e 2693 	CALL __MODW21U
0021fa 2766      	CLR  R22
0021fb 2777      	CLR  R23
0021fc cf41      	RJMP SUBOPT_0x36
                 
                 ;OPTIMIZER ADDED SUBROUTINE, CALLED 3 TIMES, CODE SIZE REDUCTION:5 WORDS
                 SUBOPT_0x4F:
0021fd e0ef      	LDI  R30,LOW(15)
0021fe 93ea      	ST   -Y,R30
0021ff e0e1      	LDI  R30,LOW(1)
002200 93ea      	ST   -Y,R30
002201 940c 1bc7 	JMP  _LineDecision
                 
                 ;OPTIMIZER ADDED SUBROUTINE, CALLED 2 TIMES, CODE SIZE REDUCTION:3 WORDS
                 SUBOPT_0x50:
002203 e0ec      	LDI  R30,LOW(12)
002204 93ea      	ST   -Y,R30
002205 e0e1      	LDI  R30,LOW(1)
002206 93ea      	ST   -Y,R30
                +
002207 efe5     +LDI R30 , LOW ( 2 * _0x0 + 501 )
002208 e0f2     +LDI R31 , HIGH ( 2 * _0x0 + 501 )
                 	__POINTW1FN _0x0,501
002209 93fa      	ST   -Y,R31
00220a 93ea      	ST   -Y,R30
00220b 9508      	RET
                 
                 ;OPTIMIZER ADDED SUBROUTINE, CALLED 2 TIMES, CODE SIZE REDUCTION:1 WORDS
                 SUBOPT_0x51:
00220c 91a0 0a41 	LDS  R26,_SetData
00220e 91b0 0a42 	LDS  R27,_SetData+1
002210 e0ea      	LDI  R30,LOW(10)
002211 e0f0      	LDI  R31,HIGH(10)
002212 9508      	RET
                 
                 ;OPTIMIZER ADDED SUBROUTINE, CALLED 7 TIMES, CODE SIZE REDUCTION:9 WORDS
                 SUBOPT_0x52:
002213 91e0 0a43 	LDS  R30,_Hidden1SetData
002215 91f0 0a44 	LDS  R31,_Hidden1SetData+1
002217 9508      	RET
                 
                 ;OPTIMIZER ADDED SUBROUTINE, CALLED 2 TIMES, CODE SIZE REDUCTION:1 WORDS
                 SUBOPT_0x53:
002218 91a0 0a43 	LDS  R26,_Hidden1SetData
00221a 91b0 0a44 	LDS  R27,_Hidden1SetData+1
00221c e0ea      	LDI  R30,LOW(10)
00221d e0f0      	LDI  R31,HIGH(10)
00221e 9508      	RET
                 
                 ;OPTIMIZER ADDED SUBROUTINE, CALLED 3 TIMES, CODE SIZE REDUCTION:13 WORDS
                 SUBOPT_0x54:
00221f 91e0 0105 	LDS  R30,261
002221 60e8      	ORI  R30,8
002222 93e0 0105 	STS  261,R30
002224 91e0 0105 	LDS  R30,261
002226 7eef      	ANDI R30,0xEF
002227 93e0 0105 	STS  261,R30
002229 9508      	RET
                 
                 ;OPTIMIZER ADDED SUBROUTINE, CALLED 5 TIMES, CODE SIZE REDUCTION:9 WORDS
                 SUBOPT_0x55:
00222a 91e0 0105 	LDS  R30,261
00222c 60e8      	ORI  R30,8
00222d 93e0 0105 	STS  261,R30
00222f 9508      	RET
                 
                 ;OPTIMIZER ADDED SUBROUTINE, CALLED 6 TIMES, CODE SIZE REDUCTION:12 WORDS
                 SUBOPT_0x56:
002230 91e0 0105 	LDS  R30,261
002232 61e0      	ORI  R30,0x10
002233 93e0 0105 	STS  261,R30
002235 9508      	RET
                 
                 ;OPTIMIZER ADDED SUBROUTINE, CALLED 3 TIMES, CODE SIZE REDUCTION:3 WORDS
                 SUBOPT_0x57:
002236 91e0 0105 	LDS  R30,261
002238 60e4      	ORI  R30,4
002239 93e0 0105 	STS  261,R30
00223b 9508      	RET
                 
                 ;OPTIMIZER ADDED SUBROUTINE, CALLED 2 TIMES, CODE SIZE REDUCTION:8 WORDS
                 SUBOPT_0x58:
00223c 91e0 0a41 	LDS  R30,_SetData
00223e 91f0 0a42 	LDS  R31,_SetData+1
002240 963a      	ADIW R30,10
002241 93e0 0a41 	STS  _SetData,R30
002243 93f0 0a42 	STS  _SetData+1,R31
002245 91a0 0a41 	LDS  R26,_SetData
002247 91b0 0a42 	LDS  R27,_SetData+1
002249 9508      	RET
                 
                 ;OPTIMIZER ADDED SUBROUTINE, CALLED 10 TIMES, CODE SIZE REDUCTION:15 WORDS
                 SUBOPT_0x59:
00224a 93e0 0a41 	STS  _SetData,R30
00224c 93f0 0a42 	STS  _SetData+1,R31
00224e 9508      	RET
                 
                 ;OPTIMIZER ADDED SUBROUTINE, CALLED 12 TIMES, CODE SIZE REDUCTION:19 WORDS
                 SUBOPT_0x5A:
00224f e4a1      	LDI  R26,LOW(_SetData)
002250 e0ba      	LDI  R27,HIGH(_SetData)
002251 91ed      	LD   R30,X+
002252 91fd      	LD   R31,X+
002253 9508      	RET
                 
                 ;OPTIMIZER ADDED SUBROUTINE, CALLED 2 TIMES, CODE SIZE REDUCTION:1 WORDS
                 SUBOPT_0x5B:
002254 9631      	ADIW R30,1
002255 93fe      	ST   -X,R31
002256 93ee      	ST   -X,R30
002257 35e9      	CPI  R30,LOW(0x259)
002258 e0a2      	LDI  R26,HIGH(0x259)
002259 07fa      	CPC  R31,R26
00225a 9508      	RET
                 
                 ;OPTIMIZER ADDED SUBROUTINE, CALLED 8 TIMES, CODE SIZE REDUCTION:11 WORDS
                 SUBOPT_0x5C:
00225b 9731      	SBIW R30,1
00225c 93fe      	ST   -X,R31
00225d 93ee      	ST   -X,R30
00225e 9631      	ADIW R30,1
00225f 9508      	RET
                 
                 ;OPTIMIZER ADDED SUBROUTINE, CALLED 2 TIMES, CODE SIZE REDUCTION:1 WORDS
                 SUBOPT_0x5D:
002260 9631      	ADIW R30,1
002261 93fe      	ST   -X,R31
002262 93ee      	ST   -X,R30
002263 3ce9      	CPI  R30,LOW(0xC9)
002264 e0a0      	LDI  R26,HIGH(0xC9)
002265 07fa      	CPC  R31,R26
002266 9508      	RET
                 
                 ;OPTIMIZER ADDED SUBROUTINE, CALLED 2 TIMES, CODE SIZE REDUCTION:7 WORDS
                 SUBOPT_0x5E:
002267 940e 2213 	CALL SUBOPT_0x52
002269 963a      	ADIW R30,10
00226a 93e0 0a43 	STS  _Hidden1SetData,R30
00226c 93f0 0a44 	STS  _Hidden1SetData+1,R31
00226e 91a0 0a43 	LDS  R26,_Hidden1SetData
002270 91b0 0a44 	LDS  R27,_Hidden1SetData+1
002272 971b      	SBIW R26,11
002273 9508      	RET
                 
                 ;OPTIMIZER ADDED SUBROUTINE, CALLED 2 TIMES, CODE SIZE REDUCTION:1 WORDS
                 SUBOPT_0x5F:
002274 e0ea      	LDI  R30,LOW(10)
002275 e0f0      	LDI  R31,HIGH(10)
002276 93e0 0a43 	STS  _Hidden1SetData,R30
002278 93f0 0a44 	STS  _Hidden1SetData+1,R31
00227a 9508      	RET
                 
                 ;OPTIMIZER ADDED SUBROUTINE, CALLED 12 TIMES, CODE SIZE REDUCTION:19 WORDS
                 SUBOPT_0x60:
00227b e4a3      	LDI  R26,LOW(_Hidden1SetData)
00227c e0ba      	LDI  R27,HIGH(_Hidden1SetData)
00227d 91ed      	LD   R30,X+
00227e 91fd      	LD   R31,X+
00227f 9508      	RET
                 
                 ;OPTIMIZER ADDED SUBROUTINE, CALLED 4 TIMES, CODE SIZE REDUCTION:3 WORDS
                 SUBOPT_0x61:
002280 9631      	ADIW R30,1
002281 93fe      	ST   -X,R31
002282 93ee      	ST   -X,R30
002283 973b      	SBIW R30,11
002284 9508      	RET
                 
                 ;OPTIMIZER ADDED SUBROUTINE, CALLED 6 TIMES, CODE SIZE REDUCTION:7 WORDS
                 SUBOPT_0x62:
002285 91a0 0a41 	LDS  R26,_SetData
002287 91b0 0a42 	LDS  R27,_SetData+1
002289 9508      	RET
                 
                 ;OPTIMIZER ADDED SUBROUTINE, CALLED 2 TIMES, CODE SIZE REDUCTION:2 WORDS
                 SUBOPT_0x63:
00228a 91e0 0a41 	LDS  R30,_SetData
00228c 91f0 0a42 	LDS  R31,_SetData+1
00228e 973a      	SBIW R30,10
00228f cfba      	RJMP SUBOPT_0x59
                 
                 ;OPTIMIZER ADDED SUBROUTINE, CALLED 4 TIMES, CODE SIZE REDUCTION:3 WORDS
                 SUBOPT_0x64:
002290 940e 2285 	CALL SUBOPT_0x62
002292 940e 2877 	CALL __CPW02
002294 9508      	RET
                 
                 ;OPTIMIZER ADDED SUBROUTINE, CALLED 6 TIMES, CODE SIZE REDUCTION:7 WORDS
                 SUBOPT_0x65:
002295 91a0 0a43 	LDS  R26,_Hidden1SetData
002297 91b0 0a44 	LDS  R27,_Hidden1SetData+1
002299 9508      	RET
                 
                 ;OPTIMIZER ADDED SUBROUTINE, CALLED 2 TIMES, CODE SIZE REDUCTION:2 WORDS
                 SUBOPT_0x66:
00229a 940e 2213 	CALL SUBOPT_0x52
00229c 973a      	SBIW R30,10
00229d 93e0 0a43 	STS  _Hidden1SetData,R30
00229f 93f0 0a44 	STS  _Hidden1SetData+1,R31
0022a1 9508      	RET
                 
                 ;OPTIMIZER ADDED SUBROUTINE, CALLED 5 TIMES, CODE SIZE REDUCTION:5 WORDS
                 SUBOPT_0x67:
0022a2 93e0 0a43 	STS  _Hidden1SetData,R30
0022a4 93f0 0a44 	STS  _Hidden1SetData+1,R31
0022a6 9508      	RET
                 
                 ;OPTIMIZER ADDED SUBROUTINE, CALLED 2 TIMES, CODE SIZE REDUCTION:6 WORDS
                 SUBOPT_0x68:
0022a7 e0e0      	LDI  R30,LOW(0)
0022a8 93e0 0a3c 	STS  _Mode1Step,R30
0022aa e0e1      	LDI  R30,LOW(1)
0022ab 93e0 0a2d 	STS  _bRun,R30
0022ad e0e0      	LDI  R30,LOW(0)
0022ae 93e0 0a3b 	STS  _bRunAlarm,R30
0022b0 cdf0      	RJMP SUBOPT_0x26
                 
                 ;OPTIMIZER ADDED SUBROUTINE, CALLED 3 TIMES, CODE SIZE REDUCTION:1 WORDS
                 SUBOPT_0x69:
0022b1 93e0 0a0a 	STS  _PressureStep,R30
0022b3 93f0 0a0b 	STS  _PressureStep+1,R31
0022b5 9508      	RET
                 
                 ;OPTIMIZER ADDED SUBROUTINE, CALLED 2 TIMES, CODE SIZE REDUCTION:7 WORDS
                 SUBOPT_0x6A:
0022b6 e1e0      	LDI  R30,LOW(16)
0022b7 e0f0      	LDI  R31,HIGH(16)
0022b8 93fa      	ST   -Y,R31
0022b9 93ea      	ST   -Y,R30
0022ba 91e0 0a0a 	LDS  R30,_PressureStep
0022bc 91f0 0a0b 	LDS  R31,_PressureStep+1
0022be 93fa      	ST   -Y,R31
0022bf 93ea      	ST   -Y,R30
0022c0 940c 1a11 	JMP  _SetEeprom2
                 
                 ;OPTIMIZER ADDED SUBROUTINE, CALLED 4 TIMES, CODE SIZE REDUCTION:3 WORDS
                 SUBOPT_0x6B:
0022c2 91e0 0a0e 	LDS  R30,_sPressureStepDelay
0022c4 91f0 0a0f 	LDS  R31,_sPressureStepDelay+1
0022c6 9508      	RET
                 
                 ;OPTIMIZER ADDED SUBROUTINE, CALLED 2 TIMES, CODE SIZE REDUCTION:2 WORDS
                 SUBOPT_0x6C:
0022c7 940e 22a2 	CALL SUBOPT_0x67
0022c9 e0e1      	LDI  R30,LOW(1)
0022ca 93e0 0a2a 	STS  _bMenuDisplay,R30
0022cc cd8e      	RJMP SUBOPT_0x1C
                 
                 ;OPTIMIZER ADDED SUBROUTINE, CALLED 3 TIMES, CODE SIZE REDUCTION:1 WORDS
                 SUBOPT_0x6D:
0022cd 93e0 0a0e 	STS  _sPressureStepDelay,R30
0022cf 93f0 0a0f 	STS  _sPressureStepDelay+1,R31
0022d1 9508      	RET
                 
                 ;OPTIMIZER ADDED SUBROUTINE, CALLED 2 TIMES, CODE SIZE REDUCTION:5 WORDS
                 SUBOPT_0x6E:
0022d2 e1e2      	LDI  R30,LOW(18)
0022d3 e0f0      	LDI  R31,HIGH(18)
0022d4 93fa      	ST   -Y,R31
0022d5 93ea      	ST   -Y,R30
0022d6 940e 22c2 	CALL SUBOPT_0x6B
0022d8 93fa      	ST   -Y,R31
0022d9 93ea      	ST   -Y,R30
0022da 940c 1a11 	JMP  _SetEeprom2
                 
                 ;OPTIMIZER ADDED SUBROUTINE, CALLED 2 TIMES, CODE SIZE REDUCTION:1 WORDS
                 SUBOPT_0x6F:
0022dc 93e0 0a3e 	STS  _HiddenStep,R30
0022de 91e0 0a0a 	LDS  R30,_PressureStep
0022e0 91f0 0a0b 	LDS  R31,_PressureStep+1
0022e2 9508      	RET
                 
                 ;OPTIMIZER ADDED SUBROUTINE, CALLED 4 TIMES, CODE SIZE REDUCTION:12 WORDS
                 SUBOPT_0x70:
0022e3 e0f0      	LDI  R31,0
0022e4 93fa      	ST   -Y,R31
0022e5 93ea      	ST   -Y,R30
0022e6 940c 1a11 	JMP  _SetEeprom2
                 
                 ;OPTIMIZER ADDED SUBROUTINE, CALLED 2 TIMES, CODE SIZE REDUCTION:19 WORDS
                 SUBOPT_0x71:
                +
0022e8 e2e6     +LDI R30 , LOW ( 0x226 )
0022e9 e0f2     +LDI R31 , HIGH ( 0x226 )
0022ea e060     +LDI R22 , BYTE3 ( 0x226 )
0022eb e070     +LDI R23 , BYTE4 ( 0x226 )
                 	__GETD1N 0x226
0022ec 93e0 0a06 	STS  _Pressure,R30
0022ee 93f0 0a07 	STS  _Pressure+1,R31
0022f0 9360 0a08 	STS  _Pressure+2,R22
0022f2 9370 0a09 	STS  _Pressure+3,R23
                +
0022f4 e7e5     +LDI R30 , LOW ( 0x75 )
0022f5 e0f0     +LDI R31 , HIGH ( 0x75 )
0022f6 e060     +LDI R22 , BYTE3 ( 0x75 )
0022f7 e070     +LDI R23 , BYTE4 ( 0x75 )
                 	__GETD1N 0x75
0022f8 93e0 0a02 	STS  _PressureTime,R30
0022fa 93f0 0a03 	STS  _PressureTime+1,R31
0022fc 9360 0a04 	STS  _PressureTime+2,R22
0022fe 9370 0a05 	STS  _PressureTime+3,R23
002300 9508      	RET
                 
                 ;OPTIMIZER ADDED SUBROUTINE, CALLED 2 TIMES, CODE SIZE REDUCTION:7 WORDS
                 SUBOPT_0x72:
                +
002301 e2ec     +LDI R30 , LOW ( 0x12C )
002302 e0f1     +LDI R31 , HIGH ( 0x12C )
002303 e060     +LDI R22 , BYTE3 ( 0x12C )
002304 e070     +LDI R23 , BYTE4 ( 0x12C )
                 	__GETD1N 0x12C
002305 93e0 0a06 	STS  _Pressure,R30
002307 93f0 0a07 	STS  _Pressure+1,R31
002309 9360 0a08 	STS  _Pressure+2,R22
00230b 9370 0a09 	STS  _Pressure+3,R23
00230d 9508      	RET
                 
                 ;OPTIMIZER ADDED SUBROUTINE, CALLED 2 TIMES, CODE SIZE REDUCTION:7 WORDS
                 SUBOPT_0x73:
                +
00230e e2ee     +LDI R30 , LOW ( 0x2E )
00230f e0f0     +LDI R31 , HIGH ( 0x2E )
002310 e060     +LDI R22 , BYTE3 ( 0x2E )
002311 e070     +LDI R23 , BYTE4 ( 0x2E )
                 	__GETD1N 0x2E
002312 93e0 0a02 	STS  _PressureTime,R30
002314 93f0 0a03 	STS  _PressureTime+1,R31
002316 9360 0a04 	STS  _PressureTime+2,R22
002318 9370 0a05 	STS  _PressureTime+3,R23
00231a 9508      	RET
                 
                 ;OPTIMIZER ADDED SUBROUTINE, CALLED 5 TIMES, CODE SIZE REDUCTION:5 WORDS
                 SUBOPT_0x74:
00231b e0e2      	LDI  R30,LOW(2)
00231c e0f0      	LDI  R31,HIGH(2)
00231d 93fa      	ST   -Y,R31
00231e 93ea      	ST   -Y,R30
00231f 9508      	RET
                 
                 ;OPTIMIZER ADDED SUBROUTINE, CALLED 5 TIMES, CODE SIZE REDUCTION:21 WORDS
                 SUBOPT_0x75:
002320 93e0 0a06 	STS  _Pressure,R30
002322 93f0 0a07 	STS  _Pressure+1,R31
002324 9360 0a08 	STS  _Pressure+2,R22
002326 9370 0a09 	STS  _Pressure+3,R23
002328 9508      	RET
                 
                 ;OPTIMIZER ADDED SUBROUTINE, CALLED 5 TIMES, CODE SIZE REDUCTION:21 WORDS
                 SUBOPT_0x76:
002329 93e0 0a02 	STS  _PressureTime,R30
00232b 93f0 0a03 	STS  _PressureTime+1,R31
00232d 9360 0a04 	STS  _PressureTime+2,R22
00232f 9370 0a05 	STS  _PressureTime+3,R23
002331 9508      	RET
                 
                 ;OPTIMIZER ADDED SUBROUTINE, CALLED 2 TIMES, CODE SIZE REDUCTION:4 WORDS
                 SUBOPT_0x77:
002332 e0e5      	LDI  R30,LOW(5)
002333 93e0 0a3c 	STS  _Mode1Step,R30
002335 91e0 0a06 	LDS  R30,_Pressure
002337 91f0 0a07 	LDS  R31,_Pressure+1
002339 cf10      	RJMP SUBOPT_0x59
                 
                 ;OPTIMIZER ADDED SUBROUTINE, CALLED 2 TIMES, CODE SIZE REDUCTION:5 WORDS
                 SUBOPT_0x78:
00233a 91e0 0a06 	LDS  R30,_Pressure
00233c 91f0 0a07 	LDS  R31,_Pressure+1
00233e 93fa      	ST   -Y,R31
00233f 93ea      	ST   -Y,R30
002340 940e 1a11 	CALL _SetEeprom2
002342 cce9      	RJMP SUBOPT_0x16
                 
                 ;OPTIMIZER ADDED SUBROUTINE, CALLED 3 TIMES, CODE SIZE REDUCTION:3 WORDS
                 SUBOPT_0x79:
002343 e0e1      	LDI  R30,LOW(1)
002344 93e0 0a2a 	STS  _bMenuDisplay,R30
002346 cd14      	RJMP SUBOPT_0x1C
                 
                 ;OPTIMIZER ADDED SUBROUTINE, CALLED 2 TIMES, CODE SIZE REDUCTION:1 WORDS
                 SUBOPT_0x7A:
002347 91e0 0a41 	LDS  R30,_SetData
002349 91f0 0a42 	LDS  R31,_SetData+1
00234b 2766      	CLR  R22
00234c 2777      	CLR  R23
00234d 9508      	RET
                 
                 ;OPTIMIZER ADDED SUBROUTINE, CALLED 3 TIMES, CODE SIZE REDUCTION:1 WORDS
                 SUBOPT_0x7B:
00234e 91e0 0a02 	LDS  R30,_PressureTime
002350 91f0 0a03 	LDS  R31,_PressureTime+1
002352 9508      	RET
                 
                 ;OPTIMIZER ADDED SUBROUTINE, CALLED 2 TIMES, CODE SIZE REDUCTION:1 WORDS
                 SUBOPT_0x7C:
002353 940e 234e 	CALL SUBOPT_0x7B
002355 93fa      	ST   -Y,R31
002356 93ea      	ST   -Y,R30
002357 940c 1a11 	JMP  _SetEeprom2
                 
                 ;OPTIMIZER ADDED SUBROUTINE, CALLED 3 TIMES, CODE SIZE REDUCTION:9 WORDS
                 SUBOPT_0x7D:
002359 91e0 0a10 	LDS  R30,_CalItvMin
00235b 91f0 0a11 	LDS  R31,_CalItvMin+1
00235d 93fa      	ST   -Y,R31
00235e 93ea      	ST   -Y,R30
00235f 940c 1a11 	JMP  _SetEeprom2
                 
                 ;OPTIMIZER ADDED SUBROUTINE, CALLED 2 TIMES, CODE SIZE REDUCTION:3 WORDS
                 SUBOPT_0x7E:
002361 93e0 0a14 	STS  _CalItvMax,R30
002363 93f0 0a15 	STS  _CalItvMax+1,R31
002365 9360 0a16 	STS  _CalItvMax+2,R22
002367 9370 0a17 	STS  _CalItvMax+3,R23
002369 9508      	RET
                 
                 ;OPTIMIZER ADDED SUBROUTINE, CALLED 3 TIMES, CODE SIZE REDUCTION:5 WORDS
                 SUBOPT_0x7F:
00236a 940e 21b2 	CALL SUBOPT_0x46
00236c 940e 26ba 	CALL __PUTPARD1
00236e 940c 1a29 	JMP  _SetEeprom4
                 
                 ;OPTIMIZER ADDED SUBROUTINE, CALLED 3 TIMES, CODE SIZE REDUCTION:1 WORDS
                 SUBOPT_0x80:
002370 91e0 0a06 	LDS  R30,_Pressure
002372 91f0 0a07 	LDS  R31,_Pressure+1
002374 9508      	RET
                 
                 ;OPTIMIZER ADDED SUBROUTINE, CALLED 3 TIMES, CODE SIZE REDUCTION:3 WORDS
                 SUBOPT_0x81:
002375 e0e1      	LDI  R30,LOW(1)
002376 93e0 0a2a 	STS  _bMenuDisplay,R30
002378 cd00      	RJMP SUBOPT_0x20
                 
                 ;OPTIMIZER ADDED SUBROUTINE, CALLED 2 TIMES, CODE SIZE REDUCTION:3 WORDS
                 SUBOPT_0x82:
002379 e0e4      	LDI  R30,LOW(4)
00237a e0f0      	LDI  R31,HIGH(4)
00237b 93fa      	ST   -Y,R31
00237c 93ea      	ST   -Y,R30
00237d 91e0 0a24 	LDS  R30,_bAutoMode
00237f cf63      	RJMP SUBOPT_0x70
                 
                 ;OPTIMIZER ADDED SUBROUTINE, CALLED 4 TIMES, CODE SIZE REDUCTION:15 WORDS
                 SUBOPT_0x83:
002380 93e0 0a1d 	STS  _CalibStepDelay,R30
002382 93f0 0a1e 	STS  _CalibStepDelay+1,R31
002384 9360 0a1f 	STS  _CalibStepDelay+2,R22
002386 9370 0a20 	STS  _CalibStepDelay+3,R23
002388 9508      	RET
                 
                 ;OPTIMIZER ADDED SUBROUTINE, CALLED 4 TIMES, CODE SIZE REDUCTION:9 WORDS
                 SUBOPT_0x84:
002389 e0e1      	LDI  R30,LOW(1)
00238a 93ea      	ST   -Y,R30
00238b e0e0      	LDI  R30,LOW(0)
00238c 93ea      	ST   -Y,R30
00238d 940c 04ad 	JMP  _SetBuzzer
                 
                 ;OPTIMIZER ADDED SUBROUTINE, CALLED 5 TIMES, CODE SIZE REDUCTION:9 WORDS
                 SUBOPT_0x85:
00238f 91ed      	LD   R30,X+
002390 91fd      	LD   R31,X+
002391 9731      	SBIW R30,1
002392 93fe      	ST   -X,R31
002393 93ee      	ST   -X,R30
002394 9508      	RET
                 
                 ;OPTIMIZER ADDED SUBROUTINE, CALLED 8 TIMES, CODE SIZE REDUCTION:39 WORDS
                 SUBOPT_0x86:
002395 91a0 0a06 	LDS  R26,_Pressure
002397 91b0 0a07 	LDS  R27,_Pressure+1
002399 9180 0a08 	LDS  R24,_Pressure+2
00239b 9190 0a09 	LDS  R25,_Pressure+3
00239d 9508      	RET
                 
                 ;OPTIMIZER ADDED SUBROUTINE, CALLED 3 TIMES, CODE SIZE REDUCTION:21 WORDS
                 SUBOPT_0x87:
00239e 91e0 0a06 	LDS  R30,_Pressure
0023a0 91f0 0a07 	LDS  R31,_Pressure+1
0023a2 9160 0a08 	LDS  R22,_Pressure+2
0023a4 9170 0a09 	LDS  R23,_Pressure+3
0023a6 91a0 0a53 	LDS  R26,_DownPressure
0023a8 91b0 0a54 	LDS  R27,_DownPressure+1
0023aa 2788      	CLR  R24
0023ab 2799      	CLR  R25
0023ac 9508      	RET
                 
                 ;OPTIMIZER ADDED SUBROUTINE, CALLED 2 TIMES, CODE SIZE REDUCTION:3 WORDS
                 SUBOPT_0x88:
0023ad 91a0 0a33 	LDS  R26,_RunStepTime
0023af 91b0 0a34 	LDS  R27,_RunStepTime+1
0023b1 9180 0a35 	LDS  R24,_RunStepTime+2
0023b3 9190 0a36 	LDS  R25,_RunStepTime+3
0023b5 9508      	RET
                 
                 ;OPTIMIZER ADDED SUBROUTINE, CALLED 3 TIMES, CODE SIZE REDUCTION:5 WORDS
                 SUBOPT_0x89:
0023b6 940e 1c3f 	CALL _GetItv
                +
0023b8 83e8     +STD Y + 0 , R30
0023b9 83f9     +STD Y + 0 + 1 , R31
0023ba 836a     +STD Y + 0 + 2 , R22
0023bb 837b     +STD Y + 0 + 3 , R23
                 	__PUTD1S 0
0023bc 9508      	RET
                 
                 ;OPTIMIZER ADDED SUBROUTINE, CALLED 5 TIMES, CODE SIZE REDUCTION:13 WORDS
                 SUBOPT_0x8A:
                +
0023bd 81e8     +LDD R30 , Y + 0
0023be 81f9     +LDD R31 , Y + 0 + 1
0023bf 816a     +LDD R22 , Y + 0 + 2
0023c0 817b     +LDD R23 , Y + 0 + 3
                 	__GETD1S 0
0023c1 cfd3      	RJMP SUBOPT_0x86
                 
                 ;OPTIMIZER ADDED SUBROUTINE, CALLED 2 TIMES, CODE SIZE REDUCTION:7 WORDS
                 SUBOPT_0x8B:
0023c2 940e 26bf 	CALL __SWAPD12
0023c4 940e 25c7 	CALL __SUBD12
0023c6 93fa      	ST   -Y,R31
0023c7 93ea      	ST   -Y,R30
0023c8 940e 1691 	CALL _abs
0023ca 940e 2395 	CALL SUBOPT_0x86
0023cc 2766      	CLR  R22
0023cd 2777      	CLR  R23
0023ce 9508      	RET
                 
                 ;OPTIMIZER ADDED SUBROUTINE, CALLED 3 TIMES, CODE SIZE REDUCTION:1 WORDS
                 SUBOPT_0x8C:
0023cf 93fa      	ST   -Y,R31
0023d0 93ea      	ST   -Y,R30
0023d1 940c 1691 	JMP  _abs
                 
                 ;OPTIMIZER ADDED SUBROUTINE, CALLED 8 TIMES, CODE SIZE REDUCTION:11 WORDS
                 SUBOPT_0x8D:
                +
0023d3 81e8     +LDD R30 , Y + 0
0023d4 81f9     +LDD R31 , Y + 0 + 1
0023d5 816a     +LDD R22 , Y + 0 + 2
0023d6 817b     +LDD R23 , Y + 0 + 3
                 	__GETD1S 0
0023d7 9508      	RET
                 
                 ;OPTIMIZER ADDED SUBROUTINE, CALLED 18 TIMES, CODE SIZE REDUCTION:31 WORDS
                 SUBOPT_0x8E:
                +
0023d8 83e8     +STD Y + 0 , R30
0023d9 83f9     +STD Y + 0 + 1 , R31
0023da 836a     +STD Y + 0 + 2 , R22
0023db 837b     +STD Y + 0 + 3 , R23
                 	__PUTD1S 0
0023dc 9508      	RET
                 
                 ;OPTIMIZER ADDED SUBROUTINE, CALLED 14 TIMES, CODE SIZE REDUCTION:23 WORDS
                 SUBOPT_0x8F:
                +
0023dd 81a8     +LDD R26 , Y + 0
0023de 81b9     +LDD R27 , Y + 0 + 1
0023df 818a     +LDD R24 , Y + 0 + 2
0023e0 819b     +LDD R25 , Y + 0 + 3
                 	__GETD2S 0
0023e1 9508      	RET
                 
                 ;OPTIMIZER ADDED SUBROUTINE, CALLED 4 TIMES, CODE SIZE REDUCTION:3 WORDS
                 SUBOPT_0x90:
0023e2 940e 26bf 	CALL __SWAPD12
0023e4 940e 276b 	CALL __SUBF12
0023e6 9508      	RET
                 
                 ;OPTIMIZER ADDED SUBROUTINE, CALLED 6 TIMES, CODE SIZE REDUCTION:12 WORDS
                 SUBOPT_0x91:
0023e7 9724      	SBIW R28,4
0023e8 e0e0      	LDI  R30,LOW(0)
0023e9 83e8      	ST   Y,R30
0023ea 83e9      	STD  Y+1,R30
0023eb 9508      	RET
                 
                 ;OPTIMIZER ADDED SUBROUTINE, CALLED 2 TIMES, CODE SIZE REDUCTION:2 WORDS
                 SUBOPT_0x92:
0023ec 93fa      	ST   -Y,R31
0023ed 93ea      	ST   -Y,R30
0023ee 940e 176c 	CALL _strcpyf
0023f0 940e 2894 	CALL __LOADLOCR4
0023f2 9660      	ADIW R28,16
0023f3 9508      	RET
                 
                 ;OPTIMIZER ADDED SUBROUTINE, CALLED 4 TIMES, CODE SIZE REDUCTION:33 WORDS
                 SUBOPT_0x93:
                +
0023f4 81ac     +LDD R26 , Y + 4
0023f5 81bd     +LDD R27 , Y + 4 + 1
0023f6 818e     +LDD R24 , Y + 4 + 2
0023f7 819f     +LDD R25 , Y + 4 + 3
                 	__GETD2S 4
                +
0023f8 e0e0     +LDI R30 , LOW ( 0x41200000 )
0023f9 e0f0     +LDI R31 , HIGH ( 0x41200000 )
0023fa e260     +LDI R22 , BYTE3 ( 0x41200000 )
0023fb e471     +LDI R23 , BYTE4 ( 0x41200000 )
                 	__GETD1N 0x41200000
0023fc 940e 27c0 	CALL __MULF12
                +
0023fe 83ec     +STD Y + 4 , R30
0023ff 83fd     +STD Y + 4 + 1 , R31
002400 836e     +STD Y + 4 + 2 , R22
002401 837f     +STD Y + 4 + 3 , R23
                 	__PUTD1S 4
002402 9508      	RET
                 
                 ;OPTIMIZER ADDED SUBROUTINE, CALLED 5 TIMES, CODE SIZE REDUCTION:5 WORDS
                 SUBOPT_0x94:
                +
002403 85ec     +LDD R30 , Y + 12
002404 85fd     +LDD R31 , Y + 12 + 1
002405 856e     +LDD R22 , Y + 12 + 2
002406 857f     +LDD R23 , Y + 12 + 3
                 	__GETD1S 12
002407 9508      	RET
                 
                 ;OPTIMIZER ADDED SUBROUTINE, CALLED 4 TIMES, CODE SIZE REDUCTION:21 WORDS
                 SUBOPT_0x95:
                +
002408 81ec     +LDD R30 , Y + 4
002409 81fd     +LDD R31 , Y + 4 + 1
00240a 816e     +LDD R22 , Y + 4 + 2
00240b 817f     +LDD R23 , Y + 4 + 3
                 	__GETD1S 4
                +
00240c 85ac     +LDD R26 , Y + 12
00240d 85bd     +LDD R27 , Y + 12 + 1
00240e 858e     +LDD R24 , Y + 12 + 2
00240f 859f     +LDD R25 , Y + 12 + 3
                 	__GETD2S 12
002410 940e 2853 	CALL __CMPF12
002412 9508      	RET
                 
                 ;OPTIMIZER ADDED SUBROUTINE, CALLED 7 TIMES, CODE SIZE REDUCTION:9 WORDS
                 SUBOPT_0x96:
                +
002413 85ac     +LDD R26 , Y + 12
002414 85bd     +LDD R27 , Y + 12 + 1
002415 858e     +LDD R24 , Y + 12 + 2
002416 859f     +LDD R25 , Y + 12 + 3
                 	__GETD2S 12
002417 9508      	RET
                 
                 ;OPTIMIZER ADDED SUBROUTINE, CALLED 2 TIMES, CODE SIZE REDUCTION:6 WORDS
                 SUBOPT_0x97:
                +
002418 eced     +LDI R30 , LOW ( 0x3DCCCCCD )
002419 ecfc     +LDI R31 , HIGH ( 0x3DCCCCCD )
00241a ec6c     +LDI R22 , BYTE3 ( 0x3DCCCCCD )
00241b e37d     +LDI R23 , BYTE4 ( 0x3DCCCCCD )
                 	__GETD1N 0x3DCCCCCD
00241c 940e 27c0 	CALL __MULF12
                +
00241e 87ec     +STD Y + 12 , R30
00241f 87fd     +STD Y + 12 + 1 , R31
002420 876e     +STD Y + 12 + 2 , R22
002421 877f     +STD Y + 12 + 3 , R23
                 	__PUTD1S 12
002422 5f3f      	SUBI R19,-LOW(1)
002423 9508      	RET
                 
                 ;OPTIMIZER ADDED SUBROUTINE, CALLED 3 TIMES, CODE SIZE REDUCTION:5 WORDS
                 SUBOPT_0x98:
                +
002424 e0e0     +LDI R30 , LOW ( 0x41200000 )
002425 e0f0     +LDI R31 , HIGH ( 0x41200000 )
002426 e260     +LDI R22 , BYTE3 ( 0x41200000 )
002427 e471     +LDI R23 , BYTE4 ( 0x41200000 )
                 	__GETD1N 0x41200000
002428 940e 27c0 	CALL __MULF12
00242a 9508      	RET
                 
                 ;OPTIMIZER ADDED SUBROUTINE, CALLED 8 TIMES, CODE SIZE REDUCTION:11 WORDS
                 SUBOPT_0x99:
                +
00242b 87ec     +STD Y + 12 , R30
00242c 87fd     +STD Y + 12 + 1 , R31
00242d 876e     +STD Y + 12 + 2 , R22
00242e 877f     +STD Y + 12 + 3 , R23
                 	__PUTD1S 12
00242f 9508      	RET
                 
                 ;OPTIMIZER ADDED SUBROUTINE, CALLED 3 TIMES, CODE SIZE REDUCTION:5 WORDS
                 SUBOPT_0x9A:
                +
002430 e0a0     +LDI R26 , LOW ( 0x3F000000 )
002431 e0b0     +LDI R27 , HIGH ( 0x3F000000 )
002432 e080     +LDI R24 , BYTE3 ( 0x3F000000 )
002433 e39f     +LDI R25 , BYTE4 ( 0x3F000000 )
                 	__GETD2N 0x3F000000
002434 940e 2772 	CALL __ADDF12
002436 9508      	RET
                 
                 ;OPTIMIZER ADDED SUBROUTINE, CALLED 3 TIMES, CODE SIZE REDUCTION:5 WORDS
                 SUBOPT_0x9B:
                +
002437 eced     +LDI R30 , LOW ( 0x3DCCCCCD )
002438 ecfc     +LDI R31 , HIGH ( 0x3DCCCCCD )
002439 ec6c     +LDI R22 , BYTE3 ( 0x3DCCCCCD )
00243a e37d     +LDI R23 , BYTE4 ( 0x3DCCCCCD )
                 	__GETD1N 0x3DCCCCCD
00243b 940e 27c0 	CALL __MULF12
00243d 9508      	RET
                 
                 ;OPTIMIZER ADDED SUBROUTINE, CALLED 3 TIMES, CODE SIZE REDUCTION:5 WORDS
                 SUBOPT_0x9C:
00243e 85a8      	LDD  R26,Y+8
00243f 85b9      	LDD  R27,Y+8+1
002440 9611      	ADIW R26,1
002441 87a8      	STD  Y+8,R26
002442 87b9      	STD  Y+8+1,R27
002443 9711      	SBIW R26,1
002444 9508      	RET
                 
                 ;OPTIMIZER ADDED SUBROUTINE, CALLED 3 TIMES, CODE SIZE REDUCTION:1 WORDS
                 SUBOPT_0x9D:
002445 2fe0      	MOV  R30,R16
002446 5de0      	SUBI R30,-LOW(48)
002447 93ec      	ST   X,R30
002448 2fe0      	MOV  R30,R16
002449 9508      	RET
                 
                 ;OPTIMIZER ADDED SUBROUTINE, CALLED 3 TIMES, CODE SIZE REDUCTION:5 WORDS
                 SUBOPT_0x9E:
00244a 85e8      	LDD  R30,Y+8
00244b 85f9      	LDD  R31,Y+8+1
00244c 9631      	ADIW R30,1
00244d 87e8      	STD  Y+8,R30
00244e 87f9      	STD  Y+8+1,R31
00244f 9731      	SBIW R30,1
002450 9508      	RET
                 
                 ;OPTIMIZER ADDED SUBROUTINE, CALLED 4 TIMES, CODE SIZE REDUCTION:36 WORDS
                 SUBOPT_0x9F:
002451 932a      	ST   -Y,R18
                +
002452 01fe     +MOVW R30 , R28
002453 5ae9     +SUBI R30 , LOW ( - 87 )
002454 4fff     +SBCI R31 , HIGH ( - 87 )
002455 9001     +LD R0 , Z +
002456 81f0     +LD R31 , Z
002457 2de0     +MOV R30 , R0
                 	__GETW1SX 87
002458 93fa      	ST   -Y,R31
002459 93ea      	ST   -Y,R30
00245a 01fe      	MOVW R30,R28
00245b 9673      	ADIW R30,19
00245c 93fa      	ST   -Y,R31
00245d 93ea      	ST   -Y,R30
00245e 940c 12ec 	JMP  __put_G101
                 
                 ;OPTIMIZER ADDED SUBROUTINE, CALLED 8 TIMES, CODE SIZE REDUCTION:25 WORDS
                 SUBOPT_0xA0:
                +
002460 01fe     +MOVW R30 , R28
002461 5ae8     +SUBI R30 , LOW ( - 88 )
002462 4fff     +SBCI R31 , HIGH ( - 88 )
002463 9001     +LD R0 , Z +
002464 81f0     +LD R31 , Z
002465 2de0     +MOV R30 , R0
                 	__GETW1SX 88
002466 9508      	RET
                 
                 ;OPTIMIZER ADDED SUBROUTINE, CALLED 7 TIMES, CODE SIZE REDUCTION:21 WORDS
                 SUBOPT_0xA1:
002467 9734      	SBIW R30,4
                +
002468 01de     +MOVW R26 , R28
002469 5aa8     +SUBI R26 , LOW ( - 88 )
00246a 4fbf     +SBCI R27 , HIGH ( - 88 )
00246b 93ed     +ST X + , R30
00246c 93fc     +ST X , R31
                 	__PUTW1SX 88
00246d 9508      	RET
                 
                 ;OPTIMIZER ADDED SUBROUTINE, CALLED 6 TIMES, CODE SIZE REDUCTION:57 WORDS
                 SUBOPT_0xA2:
                +
00246e 01fe     +MOVW R30 , R28
00246f 5ae9     +SUBI R30 , LOW ( - 87 )
002470 4fff     +SBCI R31 , HIGH ( - 87 )
002471 9001     +LD R0 , Z +
002472 81f0     +LD R31 , Z
002473 2de0     +MOV R30 , R0
                 	__GETW1SX 87
002474 93fa      	ST   -Y,R31
002475 93ea      	ST   -Y,R30
002476 01fe      	MOVW R30,R28
002477 9673      	ADIW R30,19
002478 93fa      	ST   -Y,R31
002479 93ea      	ST   -Y,R30
00247a 940c 12ec 	JMP  __put_G101
                 
                 ;OPTIMIZER ADDED SUBROUTINE, CALLED 6 TIMES, CODE SIZE REDUCTION:17 WORDS
                 SUBOPT_0xA3:
                +
00247c 01de     +MOVW R26 , R28
00247d 5aa8     +SUBI R26 , LOW ( - 88 )
00247e 4fbf     +SBCI R27 , HIGH ( - 88 )
00247f 900d     +LD R0 , X +
002480 91bc     +LD R27 , X
002481 2da0     +MOV R26 , R0
                 	__GETW2SX 88
002482 9508      	RET
                 
                 ;OPTIMIZER ADDED SUBROUTINE, CALLED 2 TIMES, CODE SIZE REDUCTION:1 WORDS
                 SUBOPT_0xA4:
002483 940e 26aa 	CALL __GETD1P
                +
002485 83ee     +STD Y + 6 , R30
002486 83ff     +STD Y + 6 + 1 , R31
002487 8768     +STD Y + 6 + 2 , R22
002488 8779     +STD Y + 6 + 3 , R23
                 	__PUTD1S 6
002489 9508      	RET
                 
                 ;OPTIMIZER ADDED SUBROUTINE, CALLED 6 TIMES, CODE SIZE REDUCTION:7 WORDS
                 SUBOPT_0xA5:
00248a 940e 2460 	CALL SUBOPT_0xA0
00248c cfda      	RJMP SUBOPT_0xA1
                 
                 ;OPTIMIZER ADDED SUBROUTINE, CALLED 4 TIMES, CODE SIZE REDUCTION:3 WORDS
                 SUBOPT_0xA6:
                +
00248d 81ee     +LDD R30 , Y + 6
00248e 81ff     +LDD R31 , Y + 6 + 1
00248f 8568     +LDD R22 , Y + 6 + 2
002490 8579     +LDD R23 , Y + 6 + 3
                 	__GETD1S 6
002491 9508      	RET
                 
                 ;OPTIMIZER ADDED SUBROUTINE, CALLED 5 TIMES, CODE SIZE REDUCTION:5 WORDS
                 SUBOPT_0xA7:
                +
002492 83ee     +STD Y + 6 , R30
002493 83ff     +STD Y + 6 + 1 , R31
002494 8768     +STD Y + 6 + 2 , R22
002495 8779     +STD Y + 6 + 3 , R23
                 	__PUTD1S 6
002496 9508      	RET
                 
                 ;OPTIMIZER ADDED SUBROUTINE, CALLED 2 TIMES, CODE SIZE REDUCTION:1 WORDS
                 SUBOPT_0xA8:
002497 85ea      	LDD  R30,Y+10
002498 85fb      	LDD  R31,Y+10+1
002499 9631      	ADIW R30,1
00249a 87ea      	STD  Y+10,R30
00249b 87fb      	STD  Y+10+1,R31
00249c 9731      	SBIW R30,1
00249d 9508      	RET
                 
                 ;OPTIMIZER ADDED SUBROUTINE, CALLED 2 TIMES, CODE SIZE REDUCTION:4 WORDS
                 SUBOPT_0xA9:
00249e 87ea      	STD  Y+10,R30
00249f 87fb      	STD  Y+10+1,R31
0024a0 93fa      	ST   -Y,R31
0024a1 93ea      	ST   -Y,R30
0024a2 940e 1777 	CALL _strlen
0024a4 2f1e      	MOV  R17,R30
0024a5 9508      	RET
                 
                 ;OPTIMIZER ADDED SUBROUTINE, CALLED 4 TIMES, CODE SIZE REDUCTION:6 WORDS
                 SUBOPT_0xAA:
0024a6 940e 247c 	CALL SUBOPT_0xA3
0024a8 9614      	ADIW R26,4
0024a9 940e 26a6 	CALL __GETW1P
0024ab 9508      	RET
                 
                 ;OPTIMIZER ADDED SUBROUTINE, CALLED 2 TIMES, CODE SIZE REDUCTION:14 WORDS
                 SUBOPT_0xAB:
0024ac 7f0b      	ANDI R16,LOW(251)
0024ad 89eb      	LDD  R30,Y+19
0024ae 93ea      	ST   -Y,R30
                +
0024af 01fe     +MOVW R30 , R28
0024b0 5ae9     +SUBI R30 , LOW ( - 87 )
0024b1 4fff     +SBCI R31 , HIGH ( - 87 )
0024b2 9001     +LD R0 , Z +
0024b3 81f0     +LD R31 , Z
0024b4 2de0     +MOV R30 , R0
                 	__GETW1SX 87
0024b5 93fa      	ST   -Y,R31
0024b6 93ea      	ST   -Y,R30
0024b7 01fe      	MOVW R30,R28
0024b8 5ae9      	SUBI R30,LOW(-(87))
0024b9 4fff      	SBCI R31,HIGH(-(87))
0024ba 93fa      	ST   -Y,R31
0024bb 93ea      	ST   -Y,R30
0024bc 940e 12ec 	CALL __put_G101
0024be 3050      	CPI  R21,0
0024bf 9508      	RET
                 
                 ;OPTIMIZER ADDED SUBROUTINE, CALLED 2 TIMES, CODE SIZE REDUCTION:1 WORDS
                 SUBOPT_0xAC:
0024c0 940e 2403 	CALL SUBOPT_0x94
                +
0024c2 81ae     +LDD R26 , Y + 6
0024c3 81bf     +LDD R27 , Y + 6 + 1
0024c4 8588     +LDD R24 , Y + 6 + 2
0024c5 8599     +LDD R25 , Y + 6 + 3
                 	__GETD2S 6
0024c6 9508      	RET
                 
                 ;OPTIMIZER ADDED SUBROUTINE, CALLED 4 TIMES, CODE SIZE REDUCTION:3 WORDS
                 SUBOPT_0xAD:
0024c7 81ec      	LDD  R30,Y+4
0024c8 81fd      	LDD  R31,Y+4+1
0024c9 93fa      	ST   -Y,R31
0024ca 93ea      	ST   -Y,R30
0024cb 9508      	RET
                 
                 ;OPTIMIZER ADDED SUBROUTINE, CALLED 3 TIMES, CODE SIZE REDUCTION:1 WORDS
                 SUBOPT_0xAE:
0024cc 93fa      	ST   -Y,R31
0024cd 93ea      	ST   -Y,R30
0024ce cb0a      	RJMP SUBOPT_0xA
                 
                 ;OPTIMIZER ADDED SUBROUTINE, CALLED 2 TIMES, CODE SIZE REDUCTION:2 WORDS
                 SUBOPT_0xAF:
0024cf 93fa      	ST   -Y,R31
0024d0 93ea      	ST   -Y,R30
0024d1 940e 176c 	CALL _strcpyf
0024d3 8119      	LDD  R17,Y+1
0024d4 8108      	LDD  R16,Y+0
0024d5 962d      	ADIW R28,13
0024d6 9508      	RET
                 
                 ;OPTIMIZER ADDED SUBROUTINE, CALLED 5 TIMES, CODE SIZE REDUCTION:5 WORDS
                 SUBOPT_0xB0:
                +
0024d7 87e9     +STD Y + 9 , R30
0024d8 87fa     +STD Y + 9 + 1 , R31
0024d9 876b     +STD Y + 9 + 2 , R22
0024da 877c     +STD Y + 9 + 3 , R23
                 	__PUTD1S 9
0024db 9508      	RET
                 
                 ;OPTIMIZER ADDED SUBROUTINE, CALLED 5 TIMES, CODE SIZE REDUCTION:13 WORDS
                 SUBOPT_0xB1:
0024dc 81ae      	LDD  R26,Y+6
0024dd 81bf      	LDD  R27,Y+6+1
0024de 9611      	ADIW R26,1
0024df 83ae      	STD  Y+6,R26
0024e0 83bf      	STD  Y+6+1,R27
0024e1 9711      	SBIW R26,1
0024e2 9508      	RET
                 
                 ;OPTIMIZER ADDED SUBROUTINE, CALLED 4 TIMES, CODE SIZE REDUCTION:3 WORDS
                 SUBOPT_0xB2:
                +
0024e3 81aa     +LDD R26 , Y + 2
0024e4 81bb     +LDD R27 , Y + 2 + 1
0024e5 818c     +LDD R24 , Y + 2 + 2
0024e6 819d     +LDD R25 , Y + 2 + 3
                 	__GETD2S 2
0024e7 9508      	RET
                 
                 ;OPTIMIZER ADDED SUBROUTINE, CALLED 4 TIMES, CODE SIZE REDUCTION:3 WORDS
                 SUBOPT_0xB3:
                +
0024e8 83ea     +STD Y + 2 , R30
0024e9 83fb     +STD Y + 2 + 1 , R31
0024ea 836c     +STD Y + 2 + 2 , R22
0024eb 837d     +STD Y + 2 + 3 , R23
                 	__PUTD1S 2
0024ec 9508      	RET
                 
                 ;OPTIMIZER ADDED SUBROUTINE, CALLED 3 TIMES, CODE SIZE REDUCTION:9 WORDS
                 SUBOPT_0xB4:
                +
0024ed 81ea     +LDD R30 , Y + 2
0024ee 81fb     +LDD R31 , Y + 2 + 1
0024ef 816c     +LDD R22 , Y + 2 + 2
0024f0 817d     +LDD R23 , Y + 2 + 3
                 	__GETD1S 2
                +
0024f1 85a9     +LDD R26 , Y + 9
0024f2 85ba     +LDD R27 , Y + 9 + 1
0024f3 858b     +LDD R24 , Y + 9 + 2
0024f4 859c     +LDD R25 , Y + 9 + 3
                 	__GETD2S 9
0024f5 9508      	RET
                 
                 ;OPTIMIZER ADDED SUBROUTINE, CALLED 3 TIMES, CODE SIZE REDUCTION:1 WORDS
                 SUBOPT_0xB5:
                +
0024f6 85a9     +LDD R26 , Y + 9
0024f7 85ba     +LDD R27 , Y + 9 + 1
0024f8 858b     +LDD R24 , Y + 9 + 2
0024f9 859c     +LDD R25 , Y + 9 + 3
                 	__GETD2S 9
0024fa 9508      	RET
                 
                 ;OPTIMIZER ADDED SUBROUTINE, CALLED 2 TIMES, CODE SIZE REDUCTION:2 WORDS
                 SUBOPT_0xB6:
0024fb 81ae      	LDD  R26,Y+6
0024fc 81bf      	LDD  R27,Y+6+1
0024fd e0e0      	LDI  R30,LOW(0)
0024fe 93ec      	ST   X,R30
0024ff 8119      	LDD  R17,Y+1
002500 8108      	LDD  R16,Y+0
002501 962d      	ADIW R28,13
002502 9508      	RET
                 
                 ;OPTIMIZER ADDED SUBROUTINE, CALLED 3 TIMES, CODE SIZE REDUCTION:3 WORDS
                 SUBOPT_0xB7:
002503 91ed      	LD   R30,X+
002504 91fd      	LD   R31,X+
002505 9631      	ADIW R30,1
002506 93fe      	ST   -X,R31
002507 93ee      	ST   -X,R30
002508 9508      	RET
                 
                 ;OPTIMIZER ADDED SUBROUTINE, CALLED 3 TIMES, CODE SIZE REDUCTION:1 WORDS
                 SUBOPT_0xB8:
002509 931a      	ST   -Y,R17
00250a 930a      	ST   -Y,R16
                +
00250b e000     +LDI R16 , LOW ( 0 )
00250c e010     +LDI R17 , HIGH ( 0 )
                 	__GETWRN 16,17,0
00250d 9508      	RET
                 
                 ;OPTIMIZER ADDED SUBROUTINE, CALLED 4 TIMES, CODE SIZE REDUCTION:3 WORDS
                 SUBOPT_0xB9:
                +
00250e 81ea     +LDD R30 , Y + 2
00250f 81fb     +LDD R31 , Y + 2 + 1
002510 816c     +LDD R22 , Y + 2 + 2
002511 817d     +LDD R23 , Y + 2 + 3
                 	__GETD1S 2
002512 9508      	RET
                 
                 ;OPTIMIZER ADDED SUBROUTINE, CALLED 3 TIMES, CODE SIZE REDUCTION:3 WORDS
                 SUBOPT_0xBA:
002513 93ea      	ST   -Y,R30
002514 940e 1a04 	CALL _SetEeprom
002516 81ec      	LDD  R30,Y+4
002517 81fd      	LDD  R31,Y+4+1
002518 9508      	RET
                 
                 ;OPTIMIZER ADDED SUBROUTINE, CALLED 3 TIMES, CODE SIZE REDUCTION:1 WORDS
                 SUBOPT_0xBB:
002519 93fa      	ST   -Y,R31
00251a 93ea      	ST   -Y,R30
00251b cff2      	RJMP SUBOPT_0xB9
                 
                 ;OPTIMIZER ADDED SUBROUTINE, CALLED 5 TIMES, CODE SIZE REDUCTION:5 WORDS
                 SUBOPT_0xBC:
00251c 93fa      	ST   -Y,R31
00251d 93ea      	ST   -Y,R30
00251e 940c 1a5d 	JMP  _GetEeprom
                 
                 ;OPTIMIZER ADDED SUBROUTINE, CALLED 2 TIMES, CODE SIZE REDUCTION:1 WORDS
                 SUBOPT_0xBD:
002520 e0e0      	LDI  R30,LOW(0)
002521 83ea      	STD  Y+2,R30
002522 83eb      	STD  Y+3,R30
002523 81ec      	LDD  R30,Y+4
002524 81fd      	LDD  R31,Y+4+1
002525 9508      	RET
                 
                 ;OPTIMIZER ADDED SUBROUTINE, CALLED 2 TIMES, CODE SIZE REDUCTION:6 WORDS
                 SUBOPT_0xBE:
002526 940e 23d8 	CALL SUBOPT_0x8E
002528 940e 23dd 	CALL SUBOPT_0x8F
00252a e0e8      	LDI  R30,LOW(8)
00252b 940e 25e7 	CALL __LSLD12
00252d 940e 23d8 	CALL SUBOPT_0x8E
00252f 81ec      	LDD  R30,Y+4
002530 81fd      	LDD  R31,Y+4+1
002531 9508      	RET
                 
                 ;OPTIMIZER ADDED SUBROUTINE, CALLED 3 TIMES, CODE SIZE REDUCTION:7 WORDS
                 SUBOPT_0xBF:
002532 940e 23dd 	CALL SUBOPT_0x8F
002534 27ff      	CLR  R31
002535 2766      	CLR  R22
002536 2777      	CLR  R23
002537 940e 25d1 	CALL __ORD12
002539 9508      	RET
                 
                 ;OPTIMIZER ADDED SUBROUTINE, CALLED 4 TIMES, CODE SIZE REDUCTION:3 WORDS
                 SUBOPT_0xC0:
00253a 940e 23d8 	CALL SUBOPT_0x8E
00253c cea0      	RJMP SUBOPT_0x8F
                 
                 ;OPTIMIZER ADDED SUBROUTINE, CALLED 3 TIMES, CODE SIZE REDUCTION:1 WORDS
                 SUBOPT_0xC1:
00253d 940e 23d8 	CALL SUBOPT_0x8E
00253f ce93      	RJMP SUBOPT_0x8D
                 
                 ;OPTIMIZER ADDED SUBROUTINE, CALLED 2 TIMES, CODE SIZE REDUCTION:23 WORDS
                 SUBOPT_0xC2:
002540 2ef8      	MOV  R15,R24
002541 97ef      	SBIW R28,63
002542 97a5      	SBIW R28,37
002543 931a      	ST   -Y,R17
002544 930a      	ST   -Y,R16
002545 01de      	MOVW R26,R28
002546 59ae      	SUBI R26,LOW(-(98))
002547 4fbf      	SBCI R27,HIGH(-(98))
002548 940e 25be 	CALL __ADDW2R15
00254a 018d      	MOVW R16,R26
00254b 01fe      	MOVW R30,R28
00254c 9632      	ADIW R30,2
00254d 93fa      	ST   -Y,R31
00254e 93ea      	ST   -Y,R30
00254f 01de      	MOVW R26,R28
002550 59a8      	SUBI R26,LOW(-(104))
002551 4fbf      	SBCI R27,HIGH(-(104))
002552 940e 25be 	CALL __ADDW2R15
002554 940e 26a6 	CALL __GETW1P
002556 93fa      	ST   -Y,R31
002557 93ea      	ST   -Y,R30
002558 931a      	ST   -Y,R17
002559 930a      	ST   -Y,R16
00255a 940c 167c 	JMP  _vsprintf
                 
                 ;OPTIMIZER ADDED SUBROUTINE, CALLED 2 TIMES, CODE SIZE REDUCTION:1 WORDS
                 SUBOPT_0xC3:
00255c ece8      	LDI  R30,LOW(200)
00255d e0f0      	LDI  R31,HIGH(200)
00255e 93fa      	ST   -Y,R31
00255f 93ea      	ST   -Y,R30
002560 940c 19aa 	JMP  _Delay
                 
                 ;OPTIMIZER ADDED SUBROUTINE, CALLED 6 TIMES, CODE SIZE REDUCTION:7 WORDS
                 SUBOPT_0xC4:
002562 93fa      	ST   -Y,R31
002563 93ea      	ST   -Y,R30
002564 940c 19aa 	JMP  _Delay
                 
                 ;OPTIMIZER ADDED SUBROUTINE, CALLED 5 TIMES, CODE SIZE REDUCTION:5 WORDS
                 SUBOPT_0xC5:
002566 e8e8      	LDI  R30,LOW(5000)
002567 e1f3      	LDI  R31,HIGH(5000)
002568 cff9      	RJMP SUBOPT_0xC4
                 
                 ;OPTIMIZER ADDED SUBROUTINE, CALLED 2 TIMES, CODE SIZE REDUCTION:2 WORDS
                 SUBOPT_0xC6:
002569 01de      	MOVW R26,R28
00256a 59a7      	SUBI R26,LOW(-(105))
00256b 4fbf      	SBCI R27,HIGH(-(105))
00256c 940e 25be 	CALL __ADDW2R15
00256e 91ec      	LD   R30,X
00256f 93ea      	ST   -Y,R30
002570 9508      	RET
                 
                 ;OPTIMIZER ADDED SUBROUTINE, CALLED 2 TIMES, CODE SIZE REDUCTION:3 WORDS
                 SUBOPT_0xC7:
002571 91a0 0a10 	LDS  R26,_CalItvMin
002573 91b0 0a11 	LDS  R27,_CalItvMin+1
002575 9180 0a12 	LDS  R24,_CalItvMin+2
002577 9190 0a13 	LDS  R25,_CalItvMin+3
002579 9508      	RET
                 
                 ;OPTIMIZER ADDED SUBROUTINE, CALLED 2 TIMES, CODE SIZE REDUCTION:1 WORDS
                 SUBOPT_0xC8:
00257a ede0      	LDI  R30,LOW(2000)
00257b e0f7      	LDI  R31,HIGH(2000)
00257c 93fa      	ST   -Y,R31
00257d 93ea      	ST   -Y,R30
00257e 940c 19bc 	JMP  _DelayMs
                 
                 ;OPTIMIZER ADDED SUBROUTINE, CALLED 5 TIMES, CODE SIZE REDUCTION:5 WORDS
                 SUBOPT_0xC9:
002580 93fa      	ST   -Y,R31
002581 93ea      	ST   -Y,R30
002582 940c 1a6b 	JMP  _GetEeprom2
                 
                 ;OPTIMIZER ADDED SUBROUTINE, CALLED 2 TIMES, CODE SIZE REDUCTION:7 WORDS
                 SUBOPT_0xCA:
                +
002584 e7e5     +LDI R30 , LOW ( 0x75 )
002585 e0f0     +LDI R31 , HIGH ( 0x75 )
002586 e060     +LDI R22 , BYTE3 ( 0x75 )
002587 e070     +LDI R23 , BYTE4 ( 0x75 )
                 	__GETD1N 0x75
002588 940e 2329 	CALL SUBOPT_0x76
                +
00258a e2e6     +LDI R30 , LOW ( 0x226 )
00258b e0f2     +LDI R31 , HIGH ( 0x226 )
00258c e060     +LDI R22 , BYTE3 ( 0x226 )
00258d e070     +LDI R23 , BYTE4 ( 0x226 )
                 	__GETD1N 0x226
00258e cd91      	RJMP SUBOPT_0x75
                 
                 ;OPTIMIZER ADDED SUBROUTINE, CALLED 4 TIMES, CODE SIZE REDUCTION:6 WORDS
                 SUBOPT_0xCB:
00258f 91e0 0105 	LDS  R30,261
002591 62e0      	ORI  R30,0x20
002592 93e0 0105 	STS  261,R30
002594 9508      	RET
                 
                 ;OPTIMIZER ADDED SUBROUTINE, CALLED 4 TIMES, CODE SIZE REDUCTION:6 WORDS
                 SUBOPT_0xCC:
002595 91e0 0105 	LDS  R30,261
002597 7def      	ANDI R30,0xDF
002598 93e0 0105 	STS  261,R30
00259a 9508      	RET
                 
                 ;OPTIMIZER ADDED SUBROUTINE, CALLED 2 TIMES, CODE SIZE REDUCTION:3 WORDS
                 SUBOPT_0xCD:
00259b 940e 23d3 	CALL SUBOPT_0x8D
                +
00259d 5ce2     +SUBI R30 , LOW ( 450 )
00259e 40f1     +SBCI R31 , HIGH ( 450 )
00259f 4060     +SBCI R22 , BYTE3 ( 450 )
0025a0 4070     +SBCI R23 , BYTE4 ( 450 )
                 	__SUBD1N 450
0025a1 ce2d      	RJMP SUBOPT_0x8C
                 
                 ;OPTIMIZER ADDED SUBROUTINE, CALLED 2 TIMES, CODE SIZE REDUCTION:9 WORDS
                 SUBOPT_0xCE:
0025a2 e0a5      	LDI  R26,LOW(5)
0025a3 e0b0      	LDI  R27,HIGH(5)
0025a4 940e 2614 	CALL __MULW12U
0025a6 91a0 0a14 	LDS  R26,_CalItvMax
0025a8 91b0 0a15 	LDS  R27,_CalItvMax+1
0025aa 9180 0a16 	LDS  R24,_CalItvMax+2
0025ac 9190 0a17 	LDS  R25,_CalItvMax+3
0025ae 2766      	CLR  R22
0025af 2777      	CLR  R23
0025b0 9508      	RET
                 
                 ;OPTIMIZER ADDED SUBROUTINE, CALLED 2 TIMES, CODE SIZE REDUCTION:2 WORDS
                 SUBOPT_0xCF:
0025b1 91e0 0a1c 	LDS  R30,_CalibStep
0025b3 5fef      	SUBI R30,-LOW(1)
0025b4 93e0 0a1c 	STS  _CalibStep,R30
0025b6 ca22      	RJMP SUBOPT_0xA
                 
                 ;OPTIMIZER ADDED SUBROUTINE, CALLED 2 TIMES, CODE SIZE REDUCTION:1 WORDS
                 SUBOPT_0xD0:
0025b7 940e 26ba 	CALL __PUTPARD1
0025b9 e088      	LDI  R24,8
0025ba 940e 1b1c 	CALL _Uartprintf0
0025bc 962a      	ADIW R28,10
0025bd 9508      	RET
                 
                 
                 	.CSEG
                 __ADDW2R15:
0025be 2400      	CLR  R0
0025bf 0daf      	ADD  R26,R15
0025c0 1db0      	ADC  R27,R0
0025c1 9508      	RET
                 
                 __ADDD12:
0025c2 0fea      	ADD  R30,R26
0025c3 1ffb      	ADC  R31,R27
0025c4 1f68      	ADC  R22,R24
0025c5 1f79      	ADC  R23,R25
0025c6 9508      	RET
                 
                 __SUBD12:
0025c7 1bea      	SUB  R30,R26
0025c8 0bfb      	SBC  R31,R27
0025c9 0b68      	SBC  R22,R24
0025ca 0b79      	SBC  R23,R25
0025cb 9508      	RET
                 
                 __SUBD21:
0025cc 1bae      	SUB  R26,R30
0025cd 0bbf      	SBC  R27,R31
0025ce 0b86      	SBC  R24,R22
0025cf 0b97      	SBC  R25,R23
0025d0 9508      	RET
                 
                 __ORD12:
0025d1 2bea      	OR   R30,R26
0025d2 2bfb      	OR   R31,R27
0025d3 2b68      	OR   R22,R24
0025d4 2b79      	OR   R23,R25
0025d5 9508      	RET
                 
                 __ANEGD1:
0025d6 95f0      	COM  R31
0025d7 9560      	COM  R22
0025d8 9570      	COM  R23
0025d9 95e1      	NEG  R30
0025da 4fff      	SBCI R31,-1
0025db 4f6f      	SBCI R22,-1
0025dc 4f7f      	SBCI R23,-1
0025dd 9508      	RET
                 
                 __LSRW12:
0025de 23ee      	TST  R30
0025df 2e0e      	MOV  R0,R30
0025e0 01fd      	MOVW R30,R26
0025e1 f021      	BREQ __LSRW12R
                 __LSRW12L:
0025e2 95f6      	LSR  R31
0025e3 95e7      	ROR  R30
0025e4 940a      	DEC  R0
0025e5 f7e1      	BRNE __LSRW12L
                 __LSRW12R:
0025e6 9508      	RET
                 
                 __LSLD12:
0025e7 23ee      	TST  R30
0025e8 2e0e      	MOV  R0,R30
0025e9 01fd      	MOVW R30,R26
0025ea 01bc      	MOVW R22,R24
0025eb f031      	BREQ __LSLD12R
                 __LSLD12L:
0025ec 0fee      	LSL  R30
0025ed 1fff      	ROL  R31
0025ee 1f66      	ROL  R22
0025ef 1f77      	ROL  R23
0025f0 940a      	DEC  R0
0025f1 f7d1      	BRNE __LSLD12L
                 __LSLD12R:
0025f2 9508      	RET
                 
                 __LSRD12:
0025f3 23ee      	TST  R30
0025f4 2e0e      	MOV  R0,R30
0025f5 01fd      	MOVW R30,R26
0025f6 01bc      	MOVW R22,R24
0025f7 f031      	BREQ __LSRD12R
                 __LSRD12L:
0025f8 9576      	LSR  R23
0025f9 9567      	ROR  R22
0025fa 95f7      	ROR  R31
0025fb 95e7      	ROR  R30
0025fc 940a      	DEC  R0
0025fd f7d1      	BRNE __LSRD12L
                 __LSRD12R:
0025fe 9508      	RET
                 
                 __LSRD16:
0025ff 2fe6      	MOV  R30,R22
002600 2ff7      	MOV  R31,R23
002601 e060      	LDI  R22,0
002602 e070      	LDI  R23,0
002603 9508      	RET
                 
                 __CBD1:
002604 2ffe      	MOV  R31,R30
002605 0fff      	ADD  R31,R31
002606 0bff      	SBC  R31,R31
002607 2f6f      	MOV  R22,R31
002608 2f7f      	MOV  R23,R31
002609 9508      	RET
                 
                 __CWD1:
00260a 2f6f      	MOV  R22,R31
00260b 0f66      	ADD  R22,R22
00260c 0b66      	SBC  R22,R22
00260d 2f76      	MOV  R23,R22
00260e 9508      	RET
                 
                 __LNEGB1:
00260f 23ee      	TST  R30
002610 e0e1      	LDI  R30,1
002611 f009      	BREQ __LNEGB1F
002612 27ee      	CLR  R30
                 __LNEGB1F:
002613 9508      	RET
                 
                 __MULW12U:
002614 9ffa      	MUL  R31,R26
002615 2df0      	MOV  R31,R0
002616 9feb      	MUL  R30,R27
002617 0df0      	ADD  R31,R0
002618 9fea      	MUL  R30,R26
002619 2de0      	MOV  R30,R0
00261a 0df1      	ADD  R31,R1
00261b 9508      	RET
                 
                 __MULD12U:
00261c 9f7a      	MUL  R23,R26
00261d 2d70      	MOV  R23,R0
00261e 9f6b      	MUL  R22,R27
00261f 0d70      	ADD  R23,R0
002620 9ff8      	MUL  R31,R24
002621 0d70      	ADD  R23,R0
002622 9fe9      	MUL  R30,R25
002623 0d70      	ADD  R23,R0
002624 9f6a      	MUL  R22,R26
002625 2d60      	MOV  R22,R0
002626 0d71      	ADD  R23,R1
002627 9ffb      	MUL  R31,R27
002628 0d60      	ADD  R22,R0
002629 1d71      	ADC  R23,R1
00262a 9fe8      	MUL  R30,R24
00262b 0d60      	ADD  R22,R0
00262c 1d71      	ADC  R23,R1
00262d 2788      	CLR  R24
00262e 9ffa      	MUL  R31,R26
00262f 2df0      	MOV  R31,R0
002630 0d61      	ADD  R22,R1
002631 1f78      	ADC  R23,R24
002632 9feb      	MUL  R30,R27
002633 0df0      	ADD  R31,R0
002634 1d61      	ADC  R22,R1
002635 1f78      	ADC  R23,R24
002636 9fea      	MUL  R30,R26
002637 2de0      	MOV  R30,R0
002638 0df1      	ADD  R31,R1
002639 1f68      	ADC  R22,R24
00263a 1f78      	ADC  R23,R24
00263b 9508      	RET
                 
                 __DIVB21U:
00263c 2400      	CLR  R0
00263d e098      	LDI  R25,8
                 __DIVB21U1:
00263e 0faa      	LSL  R26
00263f 1c00      	ROL  R0
002640 1a0e      	SUB  R0,R30
002641 f410      	BRCC __DIVB21U2
002642 0e0e      	ADD  R0,R30
002643 c001      	RJMP __DIVB21U3
                 __DIVB21U2:
002644 60a1      	SBR  R26,1
                 __DIVB21U3:
002645 959a      	DEC  R25
002646 f7b9      	BRNE __DIVB21U1
002647 2fea      	MOV  R30,R26
002648 2da0      	MOV  R26,R0
002649 9508      	RET
                 
                 __DIVB21:
00264a d04f      	RCALL __CHKSIGNB
00264b dff0      	RCALL __DIVB21U
00264c f40e      	BRTC __DIVB211
00264d 95e1      	NEG  R30
                 __DIVB211:
00264e 9508      	RET
                 
                 __DIVW21U:
00264f 2400      	CLR  R0
002650 2411      	CLR  R1
002651 e190      	LDI  R25,16
                 __DIVW21U1:
002652 0faa      	LSL  R26
002653 1fbb      	ROL  R27
002654 1c00      	ROL  R0
002655 1c11      	ROL  R1
002656 1a0e      	SUB  R0,R30
002657 0a1f      	SBC  R1,R31
002658 f418      	BRCC __DIVW21U2
002659 0e0e      	ADD  R0,R30
00265a 1e1f      	ADC  R1,R31
00265b c001      	RJMP __DIVW21U3
                 __DIVW21U2:
00265c 60a1      	SBR  R26,1
                 __DIVW21U3:
00265d 959a      	DEC  R25
00265e f799      	BRNE __DIVW21U1
00265f 01fd      	MOVW R30,R26
002660 01d0      	MOVW R26,R0
002661 9508      	RET
                 
                 __DIVD21U:
002662 933f      	PUSH R19
002663 934f      	PUSH R20
002664 935f      	PUSH R21
002665 2400      	CLR  R0
002666 2411      	CLR  R1
002667 2744      	CLR  R20
002668 2755      	CLR  R21
002669 e230      	LDI  R19,32
                 __DIVD21U1:
00266a 0faa      	LSL  R26
00266b 1fbb      	ROL  R27
00266c 1f88      	ROL  R24
00266d 1f99      	ROL  R25
00266e 1c00      	ROL  R0
00266f 1c11      	ROL  R1
002670 1f44      	ROL  R20
002671 1f55      	ROL  R21
002672 1a0e      	SUB  R0,R30
002673 0a1f      	SBC  R1,R31
002674 0b46      	SBC  R20,R22
002675 0b57      	SBC  R21,R23
002676 f428      	BRCC __DIVD21U2
002677 0e0e      	ADD  R0,R30
002678 1e1f      	ADC  R1,R31
002679 1f46      	ADC  R20,R22
00267a 1f57      	ADC  R21,R23
00267b c001      	RJMP __DIVD21U3
                 __DIVD21U2:
00267c 60a1      	SBR  R26,1
                 __DIVD21U3:
00267d 953a      	DEC  R19
00267e f759      	BRNE __DIVD21U1
00267f 01fd      	MOVW R30,R26
002680 01bc      	MOVW R22,R24
002681 01d0      	MOVW R26,R0
002682 01ca      	MOVW R24,R20
002683 915f      	POP  R21
002684 914f      	POP  R20
002685 913f      	POP  R19
002686 9508      	RET
                 
                 __MODB21:
002687 94e8      	CLT
002688 ffa7      	SBRS R26,7
002689 c002      	RJMP __MODB211
00268a 95a1      	NEG  R26
00268b 9468      	SET
                 __MODB211:
00268c fde7      	SBRC R30,7
00268d 95e1      	NEG  R30
00268e dfad      	RCALL __DIVB21U
00268f 2fea      	MOV  R30,R26
002690 f40e      	BRTC __MODB212
002691 95e1      	NEG  R30
                 __MODB212:
002692 9508      	RET
                 
                 __MODW21U:
002693 dfbb      	RCALL __DIVW21U
002694 01fd      	MOVW R30,R26
002695 9508      	RET
                 
                 __MODD21U:
002696 dfcb      	RCALL __DIVD21U
002697 01fd      	MOVW R30,R26
002698 01bc      	MOVW R22,R24
002699 9508      	RET
                 
                 __CHKSIGNB:
00269a 94e8      	CLT
00269b ffe7      	SBRS R30,7
00269c c002      	RJMP __CHKSB1
00269d 95e1      	NEG  R30
00269e 9468      	SET
                 __CHKSB1:
00269f ffa7      	SBRS R26,7
0026a0 c004      	RJMP __CHKSB2
0026a1 95a1      	NEG  R26
0026a2 f800      	BLD  R0,0
0026a3 9403      	INC  R0
0026a4 fa00      	BST  R0,0
                 __CHKSB2:
0026a5 9508      	RET
                 
                 __GETW1P:
0026a6 91ed      	LD   R30,X+
0026a7 91fc      	LD   R31,X
0026a8 9711      	SBIW R26,1
0026a9 9508      	RET
                 
                 __GETD1P:
0026aa 91ed      	LD   R30,X+
0026ab 91fd      	LD   R31,X+
0026ac 916d      	LD   R22,X+
0026ad 917c      	LD   R23,X
0026ae 9713      	SBIW R26,3
0026af 9508      	RET
                 
                 __GETD1P_INC:
0026b0 91ed      	LD   R30,X+
0026b1 91fd      	LD   R31,X+
0026b2 916d      	LD   R22,X+
0026b3 917d      	LD   R23,X+
0026b4 9508      	RET
                 
                 __PUTDP1_DEC:
0026b5 937e      	ST   -X,R23
0026b6 936e      	ST   -X,R22
0026b7 93fe      	ST   -X,R31
0026b8 93ee      	ST   -X,R30
0026b9 9508      	RET
                 
                 __PUTPARD1:
0026ba 937a      	ST   -Y,R23
0026bb 936a      	ST   -Y,R22
0026bc 93fa      	ST   -Y,R31
0026bd 93ea      	ST   -Y,R30
0026be 9508      	RET
                 
                 __SWAPD12:
0026bf 2e18      	MOV  R1,R24
0026c0 2f86      	MOV  R24,R22
0026c1 2d61      	MOV  R22,R1
0026c2 2e19      	MOV  R1,R25
0026c3 2f97      	MOV  R25,R23
0026c4 2d71      	MOV  R23,R1
                 
                 __SWAPW12:
0026c5 2e1b      	MOV  R1,R27
0026c6 2fbf      	MOV  R27,R31
0026c7 2df1      	MOV  R31,R1
                 
                 __SWAPB12:
0026c8 2e1a      	MOV  R1,R26
0026c9 2fae      	MOV  R26,R30
0026ca 2de1      	MOV  R30,R1
0026cb 9508      	RET
                 
                 __ANEGF1:
0026cc 9730      	SBIW R30,0
0026cd 4060      	SBCI R22,0
0026ce 4070      	SBCI R23,0
0026cf f009      	BREQ __ANEGF10
0026d0 5870      	SUBI R23,0x80
                 __ANEGF10:
0026d1 9508      	RET
                 
                 __ROUND_REPACK:
0026d2 2355      	TST  R21
0026d3 f442      	BRPL __REPACK
0026d4 3850      	CPI  R21,0x80
0026d5 f411      	BRNE __ROUND_REPACK0
0026d6 ffe0      	SBRS R30,0
0026d7 c004      	RJMP __REPACK
                 __ROUND_REPACK0:
0026d8 9631      	ADIW R30,1
0026d9 1f69      	ADC  R22,R25
0026da 1f79      	ADC  R23,R25
0026db f06b      	BRVS __REPACK1
                 
                 __REPACK:
0026dc e850      	LDI  R21,0x80
0026dd 2757      	EOR  R21,R23
0026de f411      	BRNE __REPACK0
0026df 935f      	PUSH R21
0026e0 c0cd      	RJMP __ZERORES
                 __REPACK0:
0026e1 3f5f      	CPI  R21,0xFF
0026e2 f031      	BREQ __REPACK1
0026e3 0f66      	LSL  R22
0026e4 0c00      	LSL  R0
0026e5 9557      	ROR  R21
0026e6 9567      	ROR  R22
0026e7 2f75      	MOV  R23,R21
0026e8 9508      	RET
                 __REPACK1:
0026e9 935f      	PUSH R21
0026ea 2000      	TST  R0
0026eb f00a      	BRMI __REPACK2
0026ec c0cd      	RJMP __MAXRES
                 __REPACK2:
0026ed c0c6      	RJMP __MINRES
                 
                 __UNPACK:
0026ee e850      	LDI  R21,0x80
0026ef 2e19      	MOV  R1,R25
0026f0 2215      	AND  R1,R21
0026f1 0f88      	LSL  R24
0026f2 1f99      	ROL  R25
0026f3 2795      	EOR  R25,R21
0026f4 0f55      	LSL  R21
0026f5 9587      	ROR  R24
                 
                 __UNPACK1:
0026f6 e850      	LDI  R21,0x80
0026f7 2e07      	MOV  R0,R23
0026f8 2205      	AND  R0,R21
0026f9 0f66      	LSL  R22
0026fa 1f77      	ROL  R23
0026fb 2775      	EOR  R23,R21
0026fc 0f55      	LSL  R21
0026fd 9567      	ROR  R22
0026fe 9508      	RET
                 
                 __CFD1U:
0026ff 9468      	SET
002700 c001      	RJMP __CFD1U0
                 __CFD1:
002701 94e8      	CLT
                 __CFD1U0:
002702 935f      	PUSH R21
002703 dff2      	RCALL __UNPACK1
002704 3870      	CPI  R23,0x80
002705 f018      	BRLO __CFD10
002706 3f7f      	CPI  R23,0xFF
002707 f408      	BRCC __CFD10
002708 c0a5      	RJMP __ZERORES
                 __CFD10:
002709 e156      	LDI  R21,22
00270a 1b57      	SUB  R21,R23
00270b f4aa      	BRPL __CFD11
00270c 9551      	NEG  R21
00270d 3058      	CPI  R21,8
00270e f40e      	BRTC __CFD19
00270f 3059      	CPI  R21,9
                 __CFD19:
002710 f030      	BRLO __CFD17
002711 efef      	SER  R30
002712 efff      	SER  R31
002713 ef6f      	SER  R22
002714 e77f      	LDI  R23,0x7F
002715 f977      	BLD  R23,7
002716 c01a      	RJMP __CFD15
                 __CFD17:
002717 2777      	CLR  R23
002718 2355      	TST  R21
002719 f0b9      	BREQ __CFD15
                 __CFD18:
00271a 0fee      	LSL  R30
00271b 1fff      	ROL  R31
00271c 1f66      	ROL  R22
00271d 1f77      	ROL  R23
00271e 955a      	DEC  R21
00271f f7d1      	BRNE __CFD18
002720 c010      	RJMP __CFD15
                 __CFD11:
002721 2777      	CLR  R23
                 __CFD12:
002722 3058      	CPI  R21,8
002723 f028      	BRLO __CFD13
002724 2fef      	MOV  R30,R31
002725 2ff6      	MOV  R31,R22
002726 2f67      	MOV  R22,R23
002727 5058      	SUBI R21,8
002728 cff9      	RJMP __CFD12
                 __CFD13:
002729 2355      	TST  R21
00272a f031      	BREQ __CFD15
                 __CFD14:
00272b 9576      	LSR  R23
00272c 9567      	ROR  R22
00272d 95f7      	ROR  R31
00272e 95e7      	ROR  R30
00272f 955a      	DEC  R21
002730 f7d1      	BRNE __CFD14
                 __CFD15:
002731 2000      	TST  R0
002732 f40a      	BRPL __CFD16
002733 dea2      	RCALL __ANEGD1
                 __CFD16:
002734 915f      	POP  R21
002735 9508      	RET
                 
                 __CDF1U:
002736 9468      	SET
002737 c001      	RJMP __CDF1U0
                 __CDF1:
002738 94e8      	CLT
                 __CDF1U0:
002739 9730      	SBIW R30,0
00273a 4060      	SBCI R22,0
00273b 4070      	SBCI R23,0
00273c f0b1      	BREQ __CDF10
00273d 2400      	CLR  R0
00273e f026      	BRTS __CDF11
00273f 2377      	TST  R23
002740 f412      	BRPL __CDF11
002741 9400      	COM  R0
002742 de93      	RCALL __ANEGD1
                 __CDF11:
002743 2e17      	MOV  R1,R23
002744 e17e      	LDI  R23,30
002745 2011      	TST  R1
                 __CDF12:
002746 f032      	BRMI __CDF13
002747 957a      	DEC  R23
002748 0fee      	LSL  R30
002749 1fff      	ROL  R31
00274a 1f66      	ROL  R22
00274b 1c11      	ROL  R1
00274c cff9      	RJMP __CDF12
                 __CDF13:
00274d 2fef      	MOV  R30,R31
00274e 2ff6      	MOV  R31,R22
00274f 2d61      	MOV  R22,R1
002750 935f      	PUSH R21
002751 df8a      	RCALL __REPACK
002752 915f      	POP  R21
                 __CDF10:
002753 9508      	RET
                 
                 __SWAPACC:
002754 934f      	PUSH R20
002755 01af      	MOVW R20,R30
002756 01fd      	MOVW R30,R26
002757 01da      	MOVW R26,R20
002758 01ab      	MOVW R20,R22
002759 01bc      	MOVW R22,R24
00275a 01ca      	MOVW R24,R20
00275b 2d40      	MOV  R20,R0
00275c 2c01      	MOV  R0,R1
00275d 2e14      	MOV  R1,R20
00275e 914f      	POP  R20
00275f 9508      	RET
                 
                 __UADD12:
002760 0fea      	ADD  R30,R26
002761 1ffb      	ADC  R31,R27
002762 1f68      	ADC  R22,R24
002763 9508      	RET
                 
                 __NEGMAN1:
002764 95e0      	COM  R30
002765 95f0      	COM  R31
002766 9560      	COM  R22
002767 5fef      	SUBI R30,-1
002768 4fff      	SBCI R31,-1
002769 4f6f      	SBCI R22,-1
00276a 9508      	RET
                 
                 __SUBF12:
00276b 935f      	PUSH R21
00276c df81      	RCALL __UNPACK
00276d 3890      	CPI  R25,0x80
00276e f171      	BREQ __ADDF129
00276f e850      	LDI  R21,0x80
002770 2615      	EOR  R1,R21
                 
002771 c004      	RJMP __ADDF120
                 
                 __ADDF12:
002772 935f      	PUSH R21
002773 df7a      	RCALL __UNPACK
002774 3890      	CPI  R25,0x80
002775 f139      	BREQ __ADDF129
                 
                 __ADDF120:
002776 3870      	CPI  R23,0x80
002777 f121      	BREQ __ADDF128
                 __ADDF121:
002778 2f57      	MOV  R21,R23
002779 1b59      	SUB  R21,R25
00277a f113      	BRVS __ADDF129
00277b f412      	BRPL __ADDF122
00277c dfd7      	RCALL __SWAPACC
00277d cffa      	RJMP __ADDF121
                 __ADDF122:
00277e 3158      	CPI  R21,24
00277f f018      	BRLO __ADDF123
002780 27aa      	CLR  R26
002781 27bb      	CLR  R27
002782 2788      	CLR  R24
                 __ADDF123:
002783 3058      	CPI  R21,8
002784 f028      	BRLO __ADDF124
002785 2fab      	MOV  R26,R27
002786 2fb8      	MOV  R27,R24
002787 2788      	CLR  R24
002788 5058      	SUBI R21,8
002789 cff9      	RJMP __ADDF123
                 __ADDF124:
00278a 2355      	TST  R21
00278b f029      	BREQ __ADDF126
                 __ADDF125:
00278c 9586      	LSR  R24
00278d 95b7      	ROR  R27
00278e 95a7      	ROR  R26
00278f 955a      	DEC  R21
002790 f7d9      	BRNE __ADDF125
                 __ADDF126:
002791 2d50      	MOV  R21,R0
002792 2551      	EOR  R21,R1
002793 f062      	BRMI __ADDF127
002794 dfcb      	RCALL __UADD12
002795 f438      	BRCC __ADDF129
002796 9567      	ROR  R22
002797 95f7      	ROR  R31
002798 95e7      	ROR  R30
002799 9573      	INC  R23
00279a f413      	BRVC __ADDF129
00279b c01e      	RJMP __MAXRES
                 __ADDF128:
00279c dfb7      	RCALL __SWAPACC
                 __ADDF129:
00279d df3e      	RCALL __REPACK
00279e 915f      	POP  R21
00279f 9508      	RET
                 __ADDF127:
0027a0 1bea      	SUB  R30,R26
0027a1 0bfb      	SBC  R31,R27
0027a2 0b68      	SBC  R22,R24
0027a3 f051      	BREQ __ZERORES
0027a4 f410      	BRCC __ADDF1210
0027a5 9400      	COM  R0
0027a6 dfbd      	RCALL __NEGMAN1
                 __ADDF1210:
0027a7 2366      	TST  R22
0027a8 f3a2      	BRMI __ADDF129
0027a9 0fee      	LSL  R30
0027aa 1fff      	ROL  R31
0027ab 1f66      	ROL  R22
0027ac 957a      	DEC  R23
0027ad f7cb      	BRVC __ADDF1210
                 
                 __ZERORES:
0027ae 27ee      	CLR  R30
0027af 27ff      	CLR  R31
0027b0 2766      	CLR  R22
0027b1 2777      	CLR  R23
0027b2 915f      	POP  R21
0027b3 9508      	RET
                 
                 __MINRES:
0027b4 efef      	SER  R30
0027b5 efff      	SER  R31
0027b6 e76f      	LDI  R22,0x7F
0027b7 ef7f      	SER  R23
0027b8 915f      	POP  R21
0027b9 9508      	RET
                 
                 __MAXRES:
0027ba efef      	SER  R30
0027bb efff      	SER  R31
0027bc e76f      	LDI  R22,0x7F
0027bd e77f      	LDI  R23,0x7F
0027be 915f      	POP  R21
0027bf 9508      	RET
                 
                 __MULF12:
0027c0 935f      	PUSH R21
0027c1 df2c      	RCALL __UNPACK
0027c2 3870      	CPI  R23,0x80
0027c3 f351      	BREQ __ZERORES
0027c4 3890      	CPI  R25,0x80
0027c5 f341      	BREQ __ZERORES
0027c6 2401      	EOR  R0,R1
0027c7 9408      	SEC
0027c8 1f79      	ADC  R23,R25
0027c9 f423      	BRVC __MULF124
0027ca f31c      	BRLT __ZERORES
                 __MULF125:
0027cb 2000      	TST  R0
0027cc f33a      	BRMI __MINRES
0027cd cfec      	RJMP __MAXRES
                 __MULF124:
0027ce 920f      	PUSH R0
0027cf 931f      	PUSH R17
0027d0 932f      	PUSH R18
0027d1 933f      	PUSH R19
0027d2 934f      	PUSH R20
0027d3 2711      	CLR  R17
0027d4 2722      	CLR  R18
0027d5 2799      	CLR  R25
0027d6 9f68      	MUL  R22,R24
0027d7 01a0      	MOVW R20,R0
0027d8 9f8f      	MUL  R24,R31
0027d9 2d30      	MOV  R19,R0
0027da 0d41      	ADD  R20,R1
0027db 1f59      	ADC  R21,R25
0027dc 9f6b      	MUL  R22,R27
0027dd 0d30      	ADD  R19,R0
0027de 1d41      	ADC  R20,R1
0027df 1f59      	ADC  R21,R25
0027e0 9f8e      	MUL  R24,R30
0027e1 d027      	RCALL __MULF126
0027e2 9fbf      	MUL  R27,R31
0027e3 d025      	RCALL __MULF126
0027e4 9f6a      	MUL  R22,R26
0027e5 d023      	RCALL __MULF126
0027e6 9fbe      	MUL  R27,R30
0027e7 d01d      	RCALL __MULF127
0027e8 9faf      	MUL  R26,R31
0027e9 d01b      	RCALL __MULF127
0027ea 9fae      	MUL  R26,R30
0027eb 0d11      	ADD  R17,R1
0027ec 1f29      	ADC  R18,R25
0027ed 1f39      	ADC  R19,R25
0027ee 1f49      	ADC  R20,R25
0027ef 1f59      	ADC  R21,R25
0027f0 2fe3      	MOV  R30,R19
0027f1 2ff4      	MOV  R31,R20
0027f2 2f65      	MOV  R22,R21
0027f3 2f52      	MOV  R21,R18
0027f4 914f      	POP  R20
0027f5 913f      	POP  R19
0027f6 912f      	POP  R18
0027f7 911f      	POP  R17
0027f8 900f      	POP  R0
0027f9 2366      	TST  R22
0027fa f02a      	BRMI __MULF122
0027fb 0f55      	LSL  R21
0027fc 1fee      	ROL  R30
0027fd 1fff      	ROL  R31
0027fe 1f66      	ROL  R22
0027ff c002      	RJMP __MULF123
                 __MULF122:
002800 9573      	INC  R23
002801 f24b      	BRVS __MULF125
                 __MULF123:
002802 decf      	RCALL __ROUND_REPACK
002803 915f      	POP  R21
002804 9508      	RET
                 
                 __MULF127:
002805 0d10      	ADD  R17,R0
002806 1d21      	ADC  R18,R1
002807 1f39      	ADC  R19,R25
002808 c002      	RJMP __MULF128
                 __MULF126:
002809 0d20      	ADD  R18,R0
00280a 1d31      	ADC  R19,R1
                 __MULF128:
00280b 1f49      	ADC  R20,R25
00280c 1f59      	ADC  R21,R25
00280d 9508      	RET
                 
                 __DIVF21:
00280e 935f      	PUSH R21
00280f dede      	RCALL __UNPACK
002810 3870      	CPI  R23,0x80
002811 f421      	BRNE __DIVF210
002812 2011      	TST  R1
                 __DIVF211:
002813 f40a      	BRPL __DIVF219
002814 cf9f      	RJMP __MINRES
                 __DIVF219:
002815 cfa4      	RJMP __MAXRES
                 __DIVF210:
002816 3890      	CPI  R25,0x80
002817 f409      	BRNE __DIVF218
                 __DIVF217:
002818 cf95      	RJMP __ZERORES
                 __DIVF218:
002819 2401      	EOR  R0,R1
00281a 9408      	SEC
00281b 0b97      	SBC  R25,R23
00281c f41b      	BRVC __DIVF216
00281d f3d4      	BRLT __DIVF217
00281e 2000      	TST  R0
00281f cff3      	RJMP __DIVF211
                 __DIVF216:
002820 2f79      	MOV  R23,R25
002821 931f      	PUSH R17
002822 932f      	PUSH R18
002823 933f      	PUSH R19
002824 934f      	PUSH R20
002825 2411      	CLR  R1
002826 2711      	CLR  R17
002827 2722      	CLR  R18
002828 2733      	CLR  R19
002829 2744      	CLR  R20
00282a 2755      	CLR  R21
00282b e290      	LDI  R25,32
                 __DIVF212:
00282c 17ae      	CP   R26,R30
00282d 07bf      	CPC  R27,R31
00282e 0786      	CPC  R24,R22
00282f 0741      	CPC  R20,R17
002830 f030      	BRLO __DIVF213
002831 1bae      	SUB  R26,R30
002832 0bbf      	SBC  R27,R31
002833 0b86      	SBC  R24,R22
002834 0b41      	SBC  R20,R17
002835 9408      	SEC
002836 c001      	RJMP __DIVF214
                 __DIVF213:
002837 9488      	CLC
                 __DIVF214:
002838 1f55      	ROL  R21
002839 1f22      	ROL  R18
00283a 1f33      	ROL  R19
00283b 1c11      	ROL  R1
00283c 1faa      	ROL  R26
00283d 1fbb      	ROL  R27
00283e 1f88      	ROL  R24
00283f 1f44      	ROL  R20
002840 959a      	DEC  R25
002841 f751      	BRNE __DIVF212
002842 01f9      	MOVW R30,R18
002843 2d61      	MOV  R22,R1
002844 914f      	POP  R20
002845 913f      	POP  R19
002846 912f      	POP  R18
002847 911f      	POP  R17
002848 2366      	TST  R22
002849 f032      	BRMI __DIVF215
00284a 0f55      	LSL  R21
00284b 1fee      	ROL  R30
00284c 1fff      	ROL  R31
00284d 1f66      	ROL  R22
00284e 957a      	DEC  R23
00284f f243      	BRVS __DIVF217
                 __DIVF215:
002850 de81      	RCALL __ROUND_REPACK
002851 915f      	POP  R21
002852 9508      	RET
                 
                 __CMPF12:
002853 2399      	TST  R25
002854 f09a      	BRMI __CMPF120
002855 2377      	TST  R23
002856 f042      	BRMI __CMPF121
002857 1797      	CP   R25,R23
002858 f048      	BRLO __CMPF122
002859 f429      	BRNE __CMPF121
00285a 17ae      	CP   R26,R30
00285b 07bf      	CPC  R27,R31
00285c 0786      	CPC  R24,R22
00285d f020      	BRLO __CMPF122
00285e f031      	BREQ __CMPF123
                 __CMPF121:
00285f 9498      	CLZ
002860 9488      	CLC
002861 9508      	RET
                 __CMPF122:
002862 9498      	CLZ
002863 9408      	SEC
002864 9508      	RET
                 __CMPF123:
002865 9418      	SEZ
002866 9488      	CLC
002867 9508      	RET
                 __CMPF120:
002868 2377      	TST  R23
002869 f7c2      	BRPL __CMPF122
00286a 1797      	CP   R25,R23
00286b f398      	BRLO __CMPF121
00286c f7a9      	BRNE __CMPF122
00286d 17ea      	CP   R30,R26
00286e 07fb      	CPC  R31,R27
00286f 0768      	CPC  R22,R24
002870 f388      	BRLO __CMPF122
002871 f399      	BREQ __CMPF123
002872 cfec      	RJMP __CMPF121
                 
                 __CPD10:
002873 9730      	SBIW R30,0
002874 4060      	SBCI R22,0
002875 4070      	SBCI R23,0
002876 9508      	RET
                 
                 __CPW02:
002877 2400      	CLR  R0
002878 160a      	CP   R0,R26
002879 060b      	CPC  R0,R27
00287a 9508      	RET
                 
                 __CPD02:
00287b 2400      	CLR  R0
00287c 160a      	CP   R0,R26
00287d 060b      	CPC  R0,R27
00287e 0608      	CPC  R0,R24
00287f 0609      	CPC  R0,R25
002880 9508      	RET
                 
                 __CPD12:
002881 17ea      	CP   R30,R26
002882 07fb      	CPC  R31,R27
002883 0768      	CPC  R22,R24
002884 0779      	CPC  R23,R25
002885 9508      	RET
                 
                 __CPD21:
002886 17ae      	CP   R26,R30
002887 07bf      	CPC  R27,R31
002888 0786      	CPC  R24,R22
002889 0797      	CPC  R25,R23
00288a 9508      	RET
                 
                 __SAVELOCR6:
00288b 935a      	ST   -Y,R21
                 __SAVELOCR5:
00288c 934a      	ST   -Y,R20
                 __SAVELOCR4:
00288d 933a      	ST   -Y,R19
                 __SAVELOCR3:
00288e 932a      	ST   -Y,R18
                 __SAVELOCR2:
00288f 931a      	ST   -Y,R17
002890 930a      	ST   -Y,R16
002891 9508      	RET
                 
                 __LOADLOCR6:
002892 815d      	LDD  R21,Y+5
                 __LOADLOCR5:
002893 814c      	LDD  R20,Y+4
                 __LOADLOCR4:
002894 813b      	LDD  R19,Y+3
                 __LOADLOCR3:
002895 812a      	LDD  R18,Y+2
                 __LOADLOCR2:
002896 8119      	LDD  R17,Y+1
002897 8108      	LD   R16,Y
002898 9508      	RET
                 
                 ;END OF CODE MARKER
                 __END_OF_CODE:


RESOURCE USE INFORMATION
------------------------

Notice:
The register and instruction counts are symbol table hit counts,
and hence implicitly used resources are not counted, eg, the
'lpm' instruction without operands implicitly uses r0 and z,
none of which are counted.

x,y,z are separate entities in the symbol table and are
counted separately from r26..r31 here.

.dseg memory usage only counts static data declared with .byte

ATmega2560 register use summary:
r0 : 101 r1 :  51 r2 :   0 r3 :   0 r4 :   0 r5 :   0 r6 :   0 r7 :   0 
r8 :   0 r9 :   0 r10:   0 r11:   0 r12:   0 r13:   0 r14:   0 r15:   6 
r16:  93 r17:  96 r18:  49 r19:  40 r20:  55 r21:  94 r22: 207 r23: 189 
r24: 106 r25:  84 r26: 416 r27: 145 r28:  87 r29:   1 r30:2055 r31: 570 
x  :  82 y  : 652 z  :  30 
Registers used: 22 out of 35 (62.9%)

ATmega2560 instruction use summary:
adc   :  33 add   :  27 adiw  :  94 and   :   9 andi  :  60 asr   :   0 
bclr  :   0 bld   :   3 brbc  :   0 brbs  :   0 brcc  :   9 brcs  :   1 
break :   0 breq  : 273 brge  :   4 brhc  :   0 brhs  :   0 brid  :   0 
brie  :   0 brlo  :  30 brlt  :   8 brmi  :  11 brne  : 155 brpl  :   9 
brsh  :  64 brtc  :   4 brts  :   1 brvc  :   4 brvs  :   4 bset  :   0 
bst   :   3 call  :1105 cbi   :  15 cbr   :   2 clc   :   3 clh   :   0 
cli   :   1 cln   :   0 clr   :  94 cls   :   0 clt   :   5 clv   :   0 
clz   :   2 com   :  14 cp    :  25 cpc   :  53 cpi   : 394 cpse  :   0 
dec   :  16 des   :   0 eicall:   0 eijmp :   0 elpm  :   0 eor   :   7 
fmul  :   0 fmuls :   0 fmulsu:   0 icall :   0 ijmp  :   0 in    :   8 
inc   :   3 jmp   : 557 ld    : 107 ldd   : 213 ldi   : 922 lds   : 443 
lpm   :  14 lsl   :  17 lsr   :   5 mov   :  97 movw  :  72 mul   :  24 
muls  :   0 mulsu :   0 neg   :   9 nop   :   0 or    :   6 ori   :  27 
out   :  39 pop   :  23 push  :  23 rcall :  25 ret   : 264 reti  :   3 
rjmp  : 452 rol   :  39 ror   :  19 sbc   :  18 sbci  :  39 sbi   :  14 
sbic  :   0 sbis  :   3 sbiw  :  68 sbr   :   5 sbrc  :   5 sbrs  :  19 
sec   :   5 seh   :   0 sei   :   1 sen   :   0 ser   :   8 ses   :   0 
set   :   4 sev   :   0 sez   :   1 sleep :   0 spm   :   0 st    : 344 
std   :  88 sts   : 410 sub   :  10 subi  :  79 swap  :   0 tst   :  29 
wdr   :   1 
Instructions used: 80 out of 115 (69.6%)

ATmega2560 memory use summary [bytes]:
Segment   Begin    End      Code   Data   Used    Size   Use%
---------------------------------------------------------------
[.cseg] 0x000000 0x005132  19234   1552  20786  262144   7.9%
[.dseg] 0x000200 0x000bb1      0    433    433    8192   5.3%
[.eseg] 0x000000 0x000000      0      0      0    4096   0.0%

Assembly complete, 0 errors, 13 warnings
